   1              		.cpu cortex-m4
   2              		.arch armv7e-m
   3              		.fpu fpv4-sp-d16
   4              		.eabi_attribute 27, 1
   5              		.eabi_attribute 20, 1
   6              		.eabi_attribute 21, 1
   7              		.eabi_attribute 23, 3
   8              		.eabi_attribute 24, 1
   9              		.eabi_attribute 25, 1
  10              		.eabi_attribute 26, 1
  11              		.eabi_attribute 30, 1
  12              		.eabi_attribute 34, 1
  13              		.eabi_attribute 18, 4
  14              		.file	"CDCClassDevice.c"
  15              		.text
  16              	.Ltext0:
  17              		.cfi_sections	.debug_frame
  18              		.file 1 "/opt/XMClib/XMC_Peripheral_Library_v2.1.16/ThirdPartyLibraries/USBlib/USB/Class/Device/CD
  19              		.section	.text.CDC_Device_ConfigureEndpoints,"ax",%progbits
  20              		.align	1
  21              		.global	CDC_Device_ConfigureEndpoints
  22              		.syntax unified
  23              		.thumb
  24              		.thumb_func
  26              	CDC_Device_ConfigureEndpoints:
  27              	.LVL0:
  28              	.LFB194:
   1:/opt/XMClib/XMC_Peripheral_Library_v2.1.16/ThirdPartyLibraries/USBlib/USB/Class/Device/CDCClassDevice.c **** /*
   2:/opt/XMClib/XMC_Peripheral_Library_v2.1.16/ThirdPartyLibraries/USBlib/USB/Class/Device/CDCClassDevice.c ****              LUFA Library
   3:/opt/XMClib/XMC_Peripheral_Library_v2.1.16/ThirdPartyLibraries/USBlib/USB/Class/Device/CDCClassDevice.c ****      Copyright (C) Dean Camera, 2014.
   4:/opt/XMClib/XMC_Peripheral_Library_v2.1.16/ThirdPartyLibraries/USBlib/USB/Class/Device/CDCClassDevice.c **** 
   5:/opt/XMClib/XMC_Peripheral_Library_v2.1.16/ThirdPartyLibraries/USBlib/USB/Class/Device/CDCClassDevice.c ****   dean [at] fourwalledcubicle [dot] com
   6:/opt/XMClib/XMC_Peripheral_Library_v2.1.16/ThirdPartyLibraries/USBlib/USB/Class/Device/CDCClassDevice.c ****            www.lufa-lib.org
   7:/opt/XMClib/XMC_Peripheral_Library_v2.1.16/ThirdPartyLibraries/USBlib/USB/Class/Device/CDCClassDevice.c **** */
   8:/opt/XMClib/XMC_Peripheral_Library_v2.1.16/ThirdPartyLibraries/USBlib/USB/Class/Device/CDCClassDevice.c **** 
   9:/opt/XMClib/XMC_Peripheral_Library_v2.1.16/ThirdPartyLibraries/USBlib/USB/Class/Device/CDCClassDevice.c **** /*
  10:/opt/XMClib/XMC_Peripheral_Library_v2.1.16/ThirdPartyLibraries/USBlib/USB/Class/Device/CDCClassDevice.c ****   Copyright 2014  Dean Camera (dean [at] fourwalledcubicle [dot] com)
  11:/opt/XMClib/XMC_Peripheral_Library_v2.1.16/ThirdPartyLibraries/USBlib/USB/Class/Device/CDCClassDevice.c **** 
  12:/opt/XMClib/XMC_Peripheral_Library_v2.1.16/ThirdPartyLibraries/USBlib/USB/Class/Device/CDCClassDevice.c ****   Permission to use, copy, modify, distribute, and sell this
  13:/opt/XMClib/XMC_Peripheral_Library_v2.1.16/ThirdPartyLibraries/USBlib/USB/Class/Device/CDCClassDevice.c ****   software and its documentation for any purpose is hereby granted
  14:/opt/XMClib/XMC_Peripheral_Library_v2.1.16/ThirdPartyLibraries/USBlib/USB/Class/Device/CDCClassDevice.c ****   without fee, provided that the above copyright notice appear in
  15:/opt/XMClib/XMC_Peripheral_Library_v2.1.16/ThirdPartyLibraries/USBlib/USB/Class/Device/CDCClassDevice.c ****   all copies and that both that the copyright notice and this
  16:/opt/XMClib/XMC_Peripheral_Library_v2.1.16/ThirdPartyLibraries/USBlib/USB/Class/Device/CDCClassDevice.c ****   permission notice and warranty disclaimer appear in supporting
  17:/opt/XMClib/XMC_Peripheral_Library_v2.1.16/ThirdPartyLibraries/USBlib/USB/Class/Device/CDCClassDevice.c ****   documentation, and that the name of the author not be used in
  18:/opt/XMClib/XMC_Peripheral_Library_v2.1.16/ThirdPartyLibraries/USBlib/USB/Class/Device/CDCClassDevice.c ****   advertising or publicity pertaining to distribution of the
  19:/opt/XMClib/XMC_Peripheral_Library_v2.1.16/ThirdPartyLibraries/USBlib/USB/Class/Device/CDCClassDevice.c ****   software without specific, written prior permission.
  20:/opt/XMClib/XMC_Peripheral_Library_v2.1.16/ThirdPartyLibraries/USBlib/USB/Class/Device/CDCClassDevice.c **** 
  21:/opt/XMClib/XMC_Peripheral_Library_v2.1.16/ThirdPartyLibraries/USBlib/USB/Class/Device/CDCClassDevice.c ****   The author disclaims all warranties with regard to this
  22:/opt/XMClib/XMC_Peripheral_Library_v2.1.16/ThirdPartyLibraries/USBlib/USB/Class/Device/CDCClassDevice.c ****   software, including all implied warranties of merchantability
  23:/opt/XMClib/XMC_Peripheral_Library_v2.1.16/ThirdPartyLibraries/USBlib/USB/Class/Device/CDCClassDevice.c ****   and fitness.  In no event shall the author be liable for any
  24:/opt/XMClib/XMC_Peripheral_Library_v2.1.16/ThirdPartyLibraries/USBlib/USB/Class/Device/CDCClassDevice.c ****   special, indirect or consequential damages or any damages
  25:/opt/XMClib/XMC_Peripheral_Library_v2.1.16/ThirdPartyLibraries/USBlib/USB/Class/Device/CDCClassDevice.c ****   whatsoever resulting from loss of use, data or profits, whether
  26:/opt/XMClib/XMC_Peripheral_Library_v2.1.16/ThirdPartyLibraries/USBlib/USB/Class/Device/CDCClassDevice.c ****   in an action of contract, negligence or other tortious action,
  27:/opt/XMClib/XMC_Peripheral_Library_v2.1.16/ThirdPartyLibraries/USBlib/USB/Class/Device/CDCClassDevice.c ****   arising out of or in connection with the use or performance of
  28:/opt/XMClib/XMC_Peripheral_Library_v2.1.16/ThirdPartyLibraries/USBlib/USB/Class/Device/CDCClassDevice.c ****   this software.
  29:/opt/XMClib/XMC_Peripheral_Library_v2.1.16/ThirdPartyLibraries/USBlib/USB/Class/Device/CDCClassDevice.c **** */
  30:/opt/XMClib/XMC_Peripheral_Library_v2.1.16/ThirdPartyLibraries/USBlib/USB/Class/Device/CDCClassDevice.c **** 
  31:/opt/XMClib/XMC_Peripheral_Library_v2.1.16/ThirdPartyLibraries/USBlib/USB/Class/Device/CDCClassDevice.c **** #define  __INCLUDE_FROM_USB_DRIVER
  32:/opt/XMClib/XMC_Peripheral_Library_v2.1.16/ThirdPartyLibraries/USBlib/USB/Class/Device/CDCClassDevice.c **** #include "../../Core/USBMode.h"
  33:/opt/XMClib/XMC_Peripheral_Library_v2.1.16/ThirdPartyLibraries/USBlib/USB/Class/Device/CDCClassDevice.c **** 
  34:/opt/XMClib/XMC_Peripheral_Library_v2.1.16/ThirdPartyLibraries/USBlib/USB/Class/Device/CDCClassDevice.c **** #if defined(USB_CAN_BE_DEVICE)
  35:/opt/XMClib/XMC_Peripheral_Library_v2.1.16/ThirdPartyLibraries/USBlib/USB/Class/Device/CDCClassDevice.c **** 
  36:/opt/XMClib/XMC_Peripheral_Library_v2.1.16/ThirdPartyLibraries/USBlib/USB/Class/Device/CDCClassDevice.c **** #define  __INCLUDE_FROM_CDC_DRIVER
  37:/opt/XMClib/XMC_Peripheral_Library_v2.1.16/ThirdPartyLibraries/USBlib/USB/Class/Device/CDCClassDevice.c **** #define  __INCLUDE_FROM_CDC_DEVICE_C
  38:/opt/XMClib/XMC_Peripheral_Library_v2.1.16/ThirdPartyLibraries/USBlib/USB/Class/Device/CDCClassDevice.c **** #include "CDCClassDevice.h"
  39:/opt/XMClib/XMC_Peripheral_Library_v2.1.16/ThirdPartyLibraries/USBlib/USB/Class/Device/CDCClassDevice.c **** 
  40:/opt/XMClib/XMC_Peripheral_Library_v2.1.16/ThirdPartyLibraries/USBlib/USB/Class/Device/CDCClassDevice.c **** void CDC_Device_ProcessControlRequest(USB_ClassInfo_CDC_Device_t* const CDCInterfaceInfo)
  41:/opt/XMClib/XMC_Peripheral_Library_v2.1.16/ThirdPartyLibraries/USBlib/USB/Class/Device/CDCClassDevice.c **** {
  42:/opt/XMClib/XMC_Peripheral_Library_v2.1.16/ThirdPartyLibraries/USBlib/USB/Class/Device/CDCClassDevice.c **** 	if (!(Endpoint_IsSETUPReceived()))
  43:/opt/XMClib/XMC_Peripheral_Library_v2.1.16/ThirdPartyLibraries/USBlib/USB/Class/Device/CDCClassDevice.c **** 	  return;
  44:/opt/XMClib/XMC_Peripheral_Library_v2.1.16/ThirdPartyLibraries/USBlib/USB/Class/Device/CDCClassDevice.c **** 
  45:/opt/XMClib/XMC_Peripheral_Library_v2.1.16/ThirdPartyLibraries/USBlib/USB/Class/Device/CDCClassDevice.c **** 	if (USB_ControlRequest.wIndex != CDCInterfaceInfo->Config.ControlInterfaceNumber)
  46:/opt/XMClib/XMC_Peripheral_Library_v2.1.16/ThirdPartyLibraries/USBlib/USB/Class/Device/CDCClassDevice.c **** 	  return;
  47:/opt/XMClib/XMC_Peripheral_Library_v2.1.16/ThirdPartyLibraries/USBlib/USB/Class/Device/CDCClassDevice.c **** 
  48:/opt/XMClib/XMC_Peripheral_Library_v2.1.16/ThirdPartyLibraries/USBlib/USB/Class/Device/CDCClassDevice.c **** 	switch (USB_ControlRequest.bRequest)
  49:/opt/XMClib/XMC_Peripheral_Library_v2.1.16/ThirdPartyLibraries/USBlib/USB/Class/Device/CDCClassDevice.c **** 	{
  50:/opt/XMClib/XMC_Peripheral_Library_v2.1.16/ThirdPartyLibraries/USBlib/USB/Class/Device/CDCClassDevice.c **** 		case CDC_REQ_GetLineEncoding:
  51:/opt/XMClib/XMC_Peripheral_Library_v2.1.16/ThirdPartyLibraries/USBlib/USB/Class/Device/CDCClassDevice.c **** 			if (USB_ControlRequest.bmRequestType == (REQDIR_DEVICETOHOST | REQTYPE_CLASS | REQREC_INTERFACE)
  52:/opt/XMClib/XMC_Peripheral_Library_v2.1.16/ThirdPartyLibraries/USBlib/USB/Class/Device/CDCClassDevice.c **** 			{
  53:/opt/XMClib/XMC_Peripheral_Library_v2.1.16/ThirdPartyLibraries/USBlib/USB/Class/Device/CDCClassDevice.c **** 				Endpoint_ClearSETUP();
  54:/opt/XMClib/XMC_Peripheral_Library_v2.1.16/ThirdPartyLibraries/USBlib/USB/Class/Device/CDCClassDevice.c **** 
  55:/opt/XMClib/XMC_Peripheral_Library_v2.1.16/ThirdPartyLibraries/USBlib/USB/Class/Device/CDCClassDevice.c **** 				while (!(Endpoint_IsINReady()));
  56:/opt/XMClib/XMC_Peripheral_Library_v2.1.16/ThirdPartyLibraries/USBlib/USB/Class/Device/CDCClassDevice.c **** 
  57:/opt/XMClib/XMC_Peripheral_Library_v2.1.16/ThirdPartyLibraries/USBlib/USB/Class/Device/CDCClassDevice.c **** 				Endpoint_Write_32_LE(CDCInterfaceInfo->State.LineEncoding.BaudRateBPS);
  58:/opt/XMClib/XMC_Peripheral_Library_v2.1.16/ThirdPartyLibraries/USBlib/USB/Class/Device/CDCClassDevice.c **** 				Endpoint_Write_8(CDCInterfaceInfo->State.LineEncoding.CharFormat);
  59:/opt/XMClib/XMC_Peripheral_Library_v2.1.16/ThirdPartyLibraries/USBlib/USB/Class/Device/CDCClassDevice.c **** 				Endpoint_Write_8(CDCInterfaceInfo->State.LineEncoding.ParityType);
  60:/opt/XMClib/XMC_Peripheral_Library_v2.1.16/ThirdPartyLibraries/USBlib/USB/Class/Device/CDCClassDevice.c **** 				Endpoint_Write_8(CDCInterfaceInfo->State.LineEncoding.DataBits);
  61:/opt/XMClib/XMC_Peripheral_Library_v2.1.16/ThirdPartyLibraries/USBlib/USB/Class/Device/CDCClassDevice.c **** 
  62:/opt/XMClib/XMC_Peripheral_Library_v2.1.16/ThirdPartyLibraries/USBlib/USB/Class/Device/CDCClassDevice.c **** 				Endpoint_ClearIN();
  63:/opt/XMClib/XMC_Peripheral_Library_v2.1.16/ThirdPartyLibraries/USBlib/USB/Class/Device/CDCClassDevice.c **** 				Endpoint_ClearStatusStage();
  64:/opt/XMClib/XMC_Peripheral_Library_v2.1.16/ThirdPartyLibraries/USBlib/USB/Class/Device/CDCClassDevice.c **** 			}
  65:/opt/XMClib/XMC_Peripheral_Library_v2.1.16/ThirdPartyLibraries/USBlib/USB/Class/Device/CDCClassDevice.c **** 
  66:/opt/XMClib/XMC_Peripheral_Library_v2.1.16/ThirdPartyLibraries/USBlib/USB/Class/Device/CDCClassDevice.c **** 			break;
  67:/opt/XMClib/XMC_Peripheral_Library_v2.1.16/ThirdPartyLibraries/USBlib/USB/Class/Device/CDCClassDevice.c **** 		case CDC_REQ_SetLineEncoding:
  68:/opt/XMClib/XMC_Peripheral_Library_v2.1.16/ThirdPartyLibraries/USBlib/USB/Class/Device/CDCClassDevice.c **** 			if (USB_ControlRequest.bmRequestType == (REQDIR_HOSTTODEVICE | REQTYPE_CLASS | REQREC_INTERFACE)
  69:/opt/XMClib/XMC_Peripheral_Library_v2.1.16/ThirdPartyLibraries/USBlib/USB/Class/Device/CDCClassDevice.c **** 			{
  70:/opt/XMClib/XMC_Peripheral_Library_v2.1.16/ThirdPartyLibraries/USBlib/USB/Class/Device/CDCClassDevice.c **** 				Endpoint_ClearSETUP();
  71:/opt/XMClib/XMC_Peripheral_Library_v2.1.16/ThirdPartyLibraries/USBlib/USB/Class/Device/CDCClassDevice.c **** 
  72:/opt/XMClib/XMC_Peripheral_Library_v2.1.16/ThirdPartyLibraries/USBlib/USB/Class/Device/CDCClassDevice.c **** 				while (!(Endpoint_IsOUTReceived()))
  73:/opt/XMClib/XMC_Peripheral_Library_v2.1.16/ThirdPartyLibraries/USBlib/USB/Class/Device/CDCClassDevice.c **** 				{
  74:/opt/XMClib/XMC_Peripheral_Library_v2.1.16/ThirdPartyLibraries/USBlib/USB/Class/Device/CDCClassDevice.c **** 					if (USB_DeviceState == DEVICE_STATE_Unattached)
  75:/opt/XMClib/XMC_Peripheral_Library_v2.1.16/ThirdPartyLibraries/USBlib/USB/Class/Device/CDCClassDevice.c **** 					  return;
  76:/opt/XMClib/XMC_Peripheral_Library_v2.1.16/ThirdPartyLibraries/USBlib/USB/Class/Device/CDCClassDevice.c **** 				}
  77:/opt/XMClib/XMC_Peripheral_Library_v2.1.16/ThirdPartyLibraries/USBlib/USB/Class/Device/CDCClassDevice.c **** 
  78:/opt/XMClib/XMC_Peripheral_Library_v2.1.16/ThirdPartyLibraries/USBlib/USB/Class/Device/CDCClassDevice.c **** 				CDCInterfaceInfo->State.LineEncoding.BaudRateBPS = Endpoint_Read_32_LE();
  79:/opt/XMClib/XMC_Peripheral_Library_v2.1.16/ThirdPartyLibraries/USBlib/USB/Class/Device/CDCClassDevice.c **** 				CDCInterfaceInfo->State.LineEncoding.CharFormat  = Endpoint_Read_8();
  80:/opt/XMClib/XMC_Peripheral_Library_v2.1.16/ThirdPartyLibraries/USBlib/USB/Class/Device/CDCClassDevice.c **** 				CDCInterfaceInfo->State.LineEncoding.ParityType  = Endpoint_Read_8();
  81:/opt/XMClib/XMC_Peripheral_Library_v2.1.16/ThirdPartyLibraries/USBlib/USB/Class/Device/CDCClassDevice.c **** 				CDCInterfaceInfo->State.LineEncoding.DataBits    = Endpoint_Read_8();
  82:/opt/XMClib/XMC_Peripheral_Library_v2.1.16/ThirdPartyLibraries/USBlib/USB/Class/Device/CDCClassDevice.c **** 
  83:/opt/XMClib/XMC_Peripheral_Library_v2.1.16/ThirdPartyLibraries/USBlib/USB/Class/Device/CDCClassDevice.c **** 				Endpoint_ClearOUT();
  84:/opt/XMClib/XMC_Peripheral_Library_v2.1.16/ThirdPartyLibraries/USBlib/USB/Class/Device/CDCClassDevice.c **** 				Endpoint_ClearStatusStage();
  85:/opt/XMClib/XMC_Peripheral_Library_v2.1.16/ThirdPartyLibraries/USBlib/USB/Class/Device/CDCClassDevice.c **** 
  86:/opt/XMClib/XMC_Peripheral_Library_v2.1.16/ThirdPartyLibraries/USBlib/USB/Class/Device/CDCClassDevice.c **** 				EVENT_CDC_Device_LineEncodingChanged(CDCInterfaceInfo);
  87:/opt/XMClib/XMC_Peripheral_Library_v2.1.16/ThirdPartyLibraries/USBlib/USB/Class/Device/CDCClassDevice.c **** 			}
  88:/opt/XMClib/XMC_Peripheral_Library_v2.1.16/ThirdPartyLibraries/USBlib/USB/Class/Device/CDCClassDevice.c **** 
  89:/opt/XMClib/XMC_Peripheral_Library_v2.1.16/ThirdPartyLibraries/USBlib/USB/Class/Device/CDCClassDevice.c **** 			break;
  90:/opt/XMClib/XMC_Peripheral_Library_v2.1.16/ThirdPartyLibraries/USBlib/USB/Class/Device/CDCClassDevice.c **** 		case CDC_REQ_SetControlLineState:
  91:/opt/XMClib/XMC_Peripheral_Library_v2.1.16/ThirdPartyLibraries/USBlib/USB/Class/Device/CDCClassDevice.c **** 			if (USB_ControlRequest.bmRequestType == (REQDIR_HOSTTODEVICE | REQTYPE_CLASS | REQREC_INTERFACE)
  92:/opt/XMClib/XMC_Peripheral_Library_v2.1.16/ThirdPartyLibraries/USBlib/USB/Class/Device/CDCClassDevice.c **** 			{
  93:/opt/XMClib/XMC_Peripheral_Library_v2.1.16/ThirdPartyLibraries/USBlib/USB/Class/Device/CDCClassDevice.c **** 				Endpoint_ClearSETUP();
  94:/opt/XMClib/XMC_Peripheral_Library_v2.1.16/ThirdPartyLibraries/USBlib/USB/Class/Device/CDCClassDevice.c **** 				Endpoint_ClearStatusStage();
  95:/opt/XMClib/XMC_Peripheral_Library_v2.1.16/ThirdPartyLibraries/USBlib/USB/Class/Device/CDCClassDevice.c **** 
  96:/opt/XMClib/XMC_Peripheral_Library_v2.1.16/ThirdPartyLibraries/USBlib/USB/Class/Device/CDCClassDevice.c **** 				CDCInterfaceInfo->State.ControlLineStates.HostToDevice = USB_ControlRequest.wValue;
  97:/opt/XMClib/XMC_Peripheral_Library_v2.1.16/ThirdPartyLibraries/USBlib/USB/Class/Device/CDCClassDevice.c **** 
  98:/opt/XMClib/XMC_Peripheral_Library_v2.1.16/ThirdPartyLibraries/USBlib/USB/Class/Device/CDCClassDevice.c **** 				EVENT_CDC_Device_ControLineStateChanged(CDCInterfaceInfo);
  99:/opt/XMClib/XMC_Peripheral_Library_v2.1.16/ThirdPartyLibraries/USBlib/USB/Class/Device/CDCClassDevice.c **** 			}
 100:/opt/XMClib/XMC_Peripheral_Library_v2.1.16/ThirdPartyLibraries/USBlib/USB/Class/Device/CDCClassDevice.c **** 
 101:/opt/XMClib/XMC_Peripheral_Library_v2.1.16/ThirdPartyLibraries/USBlib/USB/Class/Device/CDCClassDevice.c **** 			break;
 102:/opt/XMClib/XMC_Peripheral_Library_v2.1.16/ThirdPartyLibraries/USBlib/USB/Class/Device/CDCClassDevice.c **** 		case CDC_REQ_SendBreak:
 103:/opt/XMClib/XMC_Peripheral_Library_v2.1.16/ThirdPartyLibraries/USBlib/USB/Class/Device/CDCClassDevice.c **** 			if (USB_ControlRequest.bmRequestType == (REQDIR_HOSTTODEVICE | REQTYPE_CLASS | REQREC_INTERFACE)
 104:/opt/XMClib/XMC_Peripheral_Library_v2.1.16/ThirdPartyLibraries/USBlib/USB/Class/Device/CDCClassDevice.c **** 			{
 105:/opt/XMClib/XMC_Peripheral_Library_v2.1.16/ThirdPartyLibraries/USBlib/USB/Class/Device/CDCClassDevice.c **** 				Endpoint_ClearSETUP();
 106:/opt/XMClib/XMC_Peripheral_Library_v2.1.16/ThirdPartyLibraries/USBlib/USB/Class/Device/CDCClassDevice.c **** 				Endpoint_ClearStatusStage();
 107:/opt/XMClib/XMC_Peripheral_Library_v2.1.16/ThirdPartyLibraries/USBlib/USB/Class/Device/CDCClassDevice.c **** 
 108:/opt/XMClib/XMC_Peripheral_Library_v2.1.16/ThirdPartyLibraries/USBlib/USB/Class/Device/CDCClassDevice.c **** 				EVENT_CDC_Device_BreakSent(CDCInterfaceInfo, (uint8_t)USB_ControlRequest.wValue);
 109:/opt/XMClib/XMC_Peripheral_Library_v2.1.16/ThirdPartyLibraries/USBlib/USB/Class/Device/CDCClassDevice.c **** 			}
 110:/opt/XMClib/XMC_Peripheral_Library_v2.1.16/ThirdPartyLibraries/USBlib/USB/Class/Device/CDCClassDevice.c **** 
 111:/opt/XMClib/XMC_Peripheral_Library_v2.1.16/ThirdPartyLibraries/USBlib/USB/Class/Device/CDCClassDevice.c **** 			break;
 112:/opt/XMClib/XMC_Peripheral_Library_v2.1.16/ThirdPartyLibraries/USBlib/USB/Class/Device/CDCClassDevice.c **** 	}
 113:/opt/XMClib/XMC_Peripheral_Library_v2.1.16/ThirdPartyLibraries/USBlib/USB/Class/Device/CDCClassDevice.c **** }
 114:/opt/XMClib/XMC_Peripheral_Library_v2.1.16/ThirdPartyLibraries/USBlib/USB/Class/Device/CDCClassDevice.c **** 
 115:/opt/XMClib/XMC_Peripheral_Library_v2.1.16/ThirdPartyLibraries/USBlib/USB/Class/Device/CDCClassDevice.c **** bool CDC_Device_ConfigureEndpoints(USB_ClassInfo_CDC_Device_t* const CDCInterfaceInfo)
 116:/opt/XMClib/XMC_Peripheral_Library_v2.1.16/ThirdPartyLibraries/USBlib/USB/Class/Device/CDCClassDevice.c **** {
  29              		.loc 1 116 1 view -0
  30              		.cfi_startproc
  31              		@ args = 0, pretend = 0, frame = 0
  32              		@ frame_needed = 0, uses_anonymous_args = 0
  33              		.loc 1 116 1 is_stmt 0 view .LVU1
  34 0000 10B5     		push	{r4, lr}
  35              	.LCFI0:
  36              		.cfi_def_cfa_offset 8
  37              		.cfi_offset 4, -8
  38              		.cfi_offset 14, -4
  39 0002 0446     		mov	r4, r0
 117:/opt/XMClib/XMC_Peripheral_Library_v2.1.16/ThirdPartyLibraries/USBlib/USB/Class/Device/CDCClassDevice.c **** 	memset(&CDCInterfaceInfo->State, 0x00, sizeof(CDCInterfaceInfo->State));
  40              		.loc 1 117 2 is_stmt 1 view .LVU2
  41 0004 0023     		movs	r3, #0
  42 0006 4361     		str	r3, [r0, #20]	@ unaligned
  43 0008 8361     		str	r3, [r0, #24]	@ unaligned
  44 000a C361     		str	r3, [r0, #28]	@ unaligned
 118:/opt/XMClib/XMC_Peripheral_Library_v2.1.16/ThirdPartyLibraries/USBlib/USB/Class/Device/CDCClassDevice.c **** 
 119:/opt/XMClib/XMC_Peripheral_Library_v2.1.16/ThirdPartyLibraries/USBlib/USB/Class/Device/CDCClassDevice.c **** 	CDCInterfaceInfo->Config.DataINEndpoint.Type       = EP_TYPE_BULK;
  45              		.loc 1 119 2 view .LVU3
  46              		.loc 1 119 53 is_stmt 0 view .LVU4
  47 000c 0223     		movs	r3, #2
  48 000e 8371     		strb	r3, [r0, #6]
 120:/opt/XMClib/XMC_Peripheral_Library_v2.1.16/ThirdPartyLibraries/USBlib/USB/Class/Device/CDCClassDevice.c **** 	CDCInterfaceInfo->Config.DataOUTEndpoint.Type      = EP_TYPE_BULK;
  49              		.loc 1 120 2 is_stmt 1 view .LVU5
  50              		.loc 1 120 53 is_stmt 0 view .LVU6
  51 0010 0373     		strb	r3, [r0, #12]
 121:/opt/XMClib/XMC_Peripheral_Library_v2.1.16/ThirdPartyLibraries/USBlib/USB/Class/Device/CDCClassDevice.c **** 	CDCInterfaceInfo->Config.NotificationEndpoint.Type = EP_TYPE_INTERRUPT;
  52              		.loc 1 121 2 is_stmt 1 view .LVU7
  53              		.loc 1 121 53 is_stmt 0 view .LVU8
  54 0012 0323     		movs	r3, #3
  55 0014 8374     		strb	r3, [r0, #18]
 122:/opt/XMClib/XMC_Peripheral_Library_v2.1.16/ThirdPartyLibraries/USBlib/USB/Class/Device/CDCClassDevice.c **** 
 123:/opt/XMClib/XMC_Peripheral_Library_v2.1.16/ThirdPartyLibraries/USBlib/USB/Class/Device/CDCClassDevice.c **** 	if (!(Endpoint_ConfigureEndpointTable(&CDCInterfaceInfo->Config.DataINEndpoint, 1)))
  56              		.loc 1 123 2 is_stmt 1 view .LVU9
  57              		.loc 1 123 8 is_stmt 0 view .LVU10
  58 0016 0121     		movs	r1, #1
  59 0018 0230     		adds	r0, r0, #2
  60              	.LVL1:
  61              		.loc 1 123 8 view .LVU11
  62 001a FFF7FEFF 		bl	Endpoint_ConfigureEndpointTable
  63              	.LVL2:
  64              		.loc 1 123 5 discriminator 1 view .LVU12
  65 001e 0346     		mov	r3, r0
  66 0020 08B9     		cbnz	r0, .L4
  67              	.L2:
 124:/opt/XMClib/XMC_Peripheral_Library_v2.1.16/ThirdPartyLibraries/USBlib/USB/Class/Device/CDCClassDevice.c **** 	  return false;
 125:/opt/XMClib/XMC_Peripheral_Library_v2.1.16/ThirdPartyLibraries/USBlib/USB/Class/Device/CDCClassDevice.c **** 
 126:/opt/XMClib/XMC_Peripheral_Library_v2.1.16/ThirdPartyLibraries/USBlib/USB/Class/Device/CDCClassDevice.c **** 	if (!(Endpoint_ConfigureEndpointTable(&CDCInterfaceInfo->Config.DataOUTEndpoint, 1)))
 127:/opt/XMClib/XMC_Peripheral_Library_v2.1.16/ThirdPartyLibraries/USBlib/USB/Class/Device/CDCClassDevice.c **** 	  return false;
 128:/opt/XMClib/XMC_Peripheral_Library_v2.1.16/ThirdPartyLibraries/USBlib/USB/Class/Device/CDCClassDevice.c **** 
 129:/opt/XMClib/XMC_Peripheral_Library_v2.1.16/ThirdPartyLibraries/USBlib/USB/Class/Device/CDCClassDevice.c **** 	if (!(Endpoint_ConfigureEndpointTable(&CDCInterfaceInfo->Config.NotificationEndpoint, 1)))
 130:/opt/XMClib/XMC_Peripheral_Library_v2.1.16/ThirdPartyLibraries/USBlib/USB/Class/Device/CDCClassDevice.c **** 	  return false;
 131:/opt/XMClib/XMC_Peripheral_Library_v2.1.16/ThirdPartyLibraries/USBlib/USB/Class/Device/CDCClassDevice.c **** 
 132:/opt/XMClib/XMC_Peripheral_Library_v2.1.16/ThirdPartyLibraries/USBlib/USB/Class/Device/CDCClassDevice.c **** 	return true;
 133:/opt/XMClib/XMC_Peripheral_Library_v2.1.16/ThirdPartyLibraries/USBlib/USB/Class/Device/CDCClassDevice.c **** }
  68              		.loc 1 133 1 view .LVU13
  69 0022 1846     		mov	r0, r3
  70 0024 10BD     		pop	{r4, pc}
  71              	.LVL3:
  72              	.L4:
 126:/opt/XMClib/XMC_Peripheral_Library_v2.1.16/ThirdPartyLibraries/USBlib/USB/Class/Device/CDCClassDevice.c **** 	  return false;
  73              		.loc 1 126 2 is_stmt 1 view .LVU14
 126:/opt/XMClib/XMC_Peripheral_Library_v2.1.16/ThirdPartyLibraries/USBlib/USB/Class/Device/CDCClassDevice.c **** 	  return false;
  74              		.loc 1 126 8 is_stmt 0 view .LVU15
  75 0026 0121     		movs	r1, #1
  76 0028 04F10800 		add	r0, r4, #8
  77 002c FFF7FEFF 		bl	Endpoint_ConfigureEndpointTable
  78              	.LVL4:
 126:/opt/XMClib/XMC_Peripheral_Library_v2.1.16/ThirdPartyLibraries/USBlib/USB/Class/Device/CDCClassDevice.c **** 	  return false;
  79              		.loc 1 126 5 discriminator 1 view .LVU16
  80 0030 0346     		mov	r3, r0
  81 0032 0028     		cmp	r0, #0
  82 0034 F5D0     		beq	.L2
 129:/opt/XMClib/XMC_Peripheral_Library_v2.1.16/ThirdPartyLibraries/USBlib/USB/Class/Device/CDCClassDevice.c **** 	  return false;
  83              		.loc 1 129 2 is_stmt 1 view .LVU17
 129:/opt/XMClib/XMC_Peripheral_Library_v2.1.16/ThirdPartyLibraries/USBlib/USB/Class/Device/CDCClassDevice.c **** 	  return false;
  84              		.loc 1 129 8 is_stmt 0 view .LVU18
  85 0036 0121     		movs	r1, #1
  86 0038 04F10E00 		add	r0, r4, #14
  87 003c FFF7FEFF 		bl	Endpoint_ConfigureEndpointTable
  88              	.LVL5:
  89 0040 0346     		mov	r3, r0
  90 0042 EEE7     		b	.L2
  91              		.cfi_endproc
  92              	.LFE194:
  94              		.section	.text.CDC_Device_SendString,"ax",%progbits
  95              		.align	1
  96              		.global	CDC_Device_SendString
  97              		.syntax unified
  98              		.thumb
  99              		.thumb_func
 101              	CDC_Device_SendString:
 102              	.LVL6:
 103              	.LFB196:
 134:/opt/XMClib/XMC_Peripheral_Library_v2.1.16/ThirdPartyLibraries/USBlib/USB/Class/Device/CDCClassDevice.c **** 
 135:/opt/XMClib/XMC_Peripheral_Library_v2.1.16/ThirdPartyLibraries/USBlib/USB/Class/Device/CDCClassDevice.c **** void CDC_Device_USBTask(USB_ClassInfo_CDC_Device_t* const CDCInterfaceInfo)
 136:/opt/XMClib/XMC_Peripheral_Library_v2.1.16/ThirdPartyLibraries/USBlib/USB/Class/Device/CDCClassDevice.c **** {
 137:/opt/XMClib/XMC_Peripheral_Library_v2.1.16/ThirdPartyLibraries/USBlib/USB/Class/Device/CDCClassDevice.c **** 	if ((USB_DeviceState != DEVICE_STATE_Configured) || !(CDCInterfaceInfo->State.LineEncoding.BaudRat
 138:/opt/XMClib/XMC_Peripheral_Library_v2.1.16/ThirdPartyLibraries/USBlib/USB/Class/Device/CDCClassDevice.c **** 	  return;
 139:/opt/XMClib/XMC_Peripheral_Library_v2.1.16/ThirdPartyLibraries/USBlib/USB/Class/Device/CDCClassDevice.c **** 
 140:/opt/XMClib/XMC_Peripheral_Library_v2.1.16/ThirdPartyLibraries/USBlib/USB/Class/Device/CDCClassDevice.c **** 	#if !defined(NO_CLASS_DRIVER_AUTOFLUSH)
 141:/opt/XMClib/XMC_Peripheral_Library_v2.1.16/ThirdPartyLibraries/USBlib/USB/Class/Device/CDCClassDevice.c **** 	Endpoint_SelectEndpoint(CDCInterfaceInfo->Config.DataINEndpoint.Address);
 142:/opt/XMClib/XMC_Peripheral_Library_v2.1.16/ThirdPartyLibraries/USBlib/USB/Class/Device/CDCClassDevice.c **** 
 143:/opt/XMClib/XMC_Peripheral_Library_v2.1.16/ThirdPartyLibraries/USBlib/USB/Class/Device/CDCClassDevice.c **** 	if (Endpoint_IsINReady())
 144:/opt/XMClib/XMC_Peripheral_Library_v2.1.16/ThirdPartyLibraries/USBlib/USB/Class/Device/CDCClassDevice.c **** 	  CDC_Device_Flush(CDCInterfaceInfo);
 145:/opt/XMClib/XMC_Peripheral_Library_v2.1.16/ThirdPartyLibraries/USBlib/USB/Class/Device/CDCClassDevice.c **** 	#endif
 146:/opt/XMClib/XMC_Peripheral_Library_v2.1.16/ThirdPartyLibraries/USBlib/USB/Class/Device/CDCClassDevice.c **** }
 147:/opt/XMClib/XMC_Peripheral_Library_v2.1.16/ThirdPartyLibraries/USBlib/USB/Class/Device/CDCClassDevice.c **** 
 148:/opt/XMClib/XMC_Peripheral_Library_v2.1.16/ThirdPartyLibraries/USBlib/USB/Class/Device/CDCClassDevice.c **** uint8_t CDC_Device_SendString(USB_ClassInfo_CDC_Device_t* const CDCInterfaceInfo,
 149:/opt/XMClib/XMC_Peripheral_Library_v2.1.16/ThirdPartyLibraries/USBlib/USB/Class/Device/CDCClassDevice.c ****                               const char* const String)
 150:/opt/XMClib/XMC_Peripheral_Library_v2.1.16/ThirdPartyLibraries/USBlib/USB/Class/Device/CDCClassDevice.c **** {
 104              		.loc 1 150 1 is_stmt 1 view -0
 105              		.cfi_startproc
 106              		@ args = 0, pretend = 0, frame = 0
 107              		@ frame_needed = 0, uses_anonymous_args = 0
 151:/opt/XMClib/XMC_Peripheral_Library_v2.1.16/ThirdPartyLibraries/USBlib/USB/Class/Device/CDCClassDevice.c **** 	if ((USB_DeviceState != DEVICE_STATE_Configured) || !(CDCInterfaceInfo->State.LineEncoding.BaudRat
 108              		.loc 1 151 2 view .LVU20
 109              		.loc 1 151 23 is_stmt 0 view .LVU21
 110 0000 0F4B     		ldr	r3, .L13
 111 0002 1B78     		ldrb	r3, [r3]	@ zero_extendqisi2
 112              		.loc 1 151 5 view .LVU22
 113 0004 042B     		cmp	r3, #4
 114 0006 16D1     		bne	.L7
 150:/opt/XMClib/XMC_Peripheral_Library_v2.1.16/ThirdPartyLibraries/USBlib/USB/Class/Device/CDCClassDevice.c **** 	if ((USB_DeviceState != DEVICE_STATE_Configured) || !(CDCInterfaceInfo->State.LineEncoding.BaudRat
 115              		.loc 1 150 1 view .LVU23
 116 0008 10B5     		push	{r4, lr}
 117              	.LCFI1:
 118              		.cfi_def_cfa_offset 8
 119              		.cfi_offset 4, -8
 120              		.cfi_offset 14, -4
 121 000a 0C46     		mov	r4, r1
 122              		.loc 1 151 92 discriminator 1 view .LVU24
 123 000c 8369     		ldr	r3, [r0, #24]	@ unaligned
 124              		.loc 1 151 51 discriminator 1 view .LVU25
 125 000e A3B1     		cbz	r3, .L8
 152:/opt/XMClib/XMC_Peripheral_Library_v2.1.16/ThirdPartyLibraries/USBlib/USB/Class/Device/CDCClassDevice.c **** 	  return ENDPOINT_RWSTREAM_DeviceDisconnected;
 153:/opt/XMClib/XMC_Peripheral_Library_v2.1.16/ThirdPartyLibraries/USBlib/USB/Class/Device/CDCClassDevice.c **** 
 154:/opt/XMClib/XMC_Peripheral_Library_v2.1.16/ThirdPartyLibraries/USBlib/USB/Class/Device/CDCClassDevice.c **** 	Endpoint_SelectEndpoint(CDCInterfaceInfo->Config.DataINEndpoint.Address);
 126              		.loc 1 154 2 is_stmt 1 view .LVU26
 127 0010 8378     		ldrb	r3, [r0, #2]	@ zero_extendqisi2
 128              	.LVL7:
 129              	.LBB57:
 130              	.LBI57:
 131              		.file 2 "/opt/XMClib/XMC_Peripheral_Library_v2.1.16/ThirdPartyLibraries/USBlib/USB/Class/Device/..
   1:/opt/XMClib/XMC_Peripheral_Library_v2.1.16/ThirdPartyLibraries/USBlib/USB/Class/Device/../../Core/XMC4000/../XMC4000/Endpoint_XMC4000.h **** /*
   2:/opt/XMClib/XMC_Peripheral_Library_v2.1.16/ThirdPartyLibraries/USBlib/USB/Class/Device/../../Core/XMC4000/../XMC4000/Endpoint_XMC4000.h ****              LUFA Library
   3:/opt/XMClib/XMC_Peripheral_Library_v2.1.16/ThirdPartyLibraries/USBlib/USB/Class/Device/../../Core/XMC4000/../XMC4000/Endpoint_XMC4000.h ****      Copyright (C) Dean Camera, 2013.
   4:/opt/XMClib/XMC_Peripheral_Library_v2.1.16/ThirdPartyLibraries/USBlib/USB/Class/Device/../../Core/XMC4000/../XMC4000/Endpoint_XMC4000.h **** 
   5:/opt/XMClib/XMC_Peripheral_Library_v2.1.16/ThirdPartyLibraries/USBlib/USB/Class/Device/../../Core/XMC4000/../XMC4000/Endpoint_XMC4000.h ****   dean [at] fourwalledcubicle [dot] com
   6:/opt/XMClib/XMC_Peripheral_Library_v2.1.16/ThirdPartyLibraries/USBlib/USB/Class/Device/../../Core/XMC4000/../XMC4000/Endpoint_XMC4000.h ****            www.lufa-lib.org
   7:/opt/XMClib/XMC_Peripheral_Library_v2.1.16/ThirdPartyLibraries/USBlib/USB/Class/Device/../../Core/XMC4000/../XMC4000/Endpoint_XMC4000.h **** */
   8:/opt/XMClib/XMC_Peripheral_Library_v2.1.16/ThirdPartyLibraries/USBlib/USB/Class/Device/../../Core/XMC4000/../XMC4000/Endpoint_XMC4000.h **** 
   9:/opt/XMClib/XMC_Peripheral_Library_v2.1.16/ThirdPartyLibraries/USBlib/USB/Class/Device/../../Core/XMC4000/../XMC4000/Endpoint_XMC4000.h **** /*
  10:/opt/XMClib/XMC_Peripheral_Library_v2.1.16/ThirdPartyLibraries/USBlib/USB/Class/Device/../../Core/XMC4000/../XMC4000/Endpoint_XMC4000.h ****   Copyright 2013  Dean Camera (dean [at] fourwalledcubicle [dot] com)
  11:/opt/XMClib/XMC_Peripheral_Library_v2.1.16/ThirdPartyLibraries/USBlib/USB/Class/Device/../../Core/XMC4000/../XMC4000/Endpoint_XMC4000.h **** 
  12:/opt/XMClib/XMC_Peripheral_Library_v2.1.16/ThirdPartyLibraries/USBlib/USB/Class/Device/../../Core/XMC4000/../XMC4000/Endpoint_XMC4000.h ****   Permission to use, copy, modify, distribute, and sell this
  13:/opt/XMClib/XMC_Peripheral_Library_v2.1.16/ThirdPartyLibraries/USBlib/USB/Class/Device/../../Core/XMC4000/../XMC4000/Endpoint_XMC4000.h ****   software and its documentation for any purpose is hereby granted
  14:/opt/XMClib/XMC_Peripheral_Library_v2.1.16/ThirdPartyLibraries/USBlib/USB/Class/Device/../../Core/XMC4000/../XMC4000/Endpoint_XMC4000.h ****   without fee, provided that the above copyright notice appear in
  15:/opt/XMClib/XMC_Peripheral_Library_v2.1.16/ThirdPartyLibraries/USBlib/USB/Class/Device/../../Core/XMC4000/../XMC4000/Endpoint_XMC4000.h ****   all copies and that both that the copyright notice and this
  16:/opt/XMClib/XMC_Peripheral_Library_v2.1.16/ThirdPartyLibraries/USBlib/USB/Class/Device/../../Core/XMC4000/../XMC4000/Endpoint_XMC4000.h ****   permission notice and warranty disclaimer appear in supporting
  17:/opt/XMClib/XMC_Peripheral_Library_v2.1.16/ThirdPartyLibraries/USBlib/USB/Class/Device/../../Core/XMC4000/../XMC4000/Endpoint_XMC4000.h ****   documentation, and that the name of the author not be used in
  18:/opt/XMClib/XMC_Peripheral_Library_v2.1.16/ThirdPartyLibraries/USBlib/USB/Class/Device/../../Core/XMC4000/../XMC4000/Endpoint_XMC4000.h ****   advertising or publicity pertaining to distribution of the
  19:/opt/XMClib/XMC_Peripheral_Library_v2.1.16/ThirdPartyLibraries/USBlib/USB/Class/Device/../../Core/XMC4000/../XMC4000/Endpoint_XMC4000.h ****   software without specific, written prior permission.
  20:/opt/XMClib/XMC_Peripheral_Library_v2.1.16/ThirdPartyLibraries/USBlib/USB/Class/Device/../../Core/XMC4000/../XMC4000/Endpoint_XMC4000.h **** 
  21:/opt/XMClib/XMC_Peripheral_Library_v2.1.16/ThirdPartyLibraries/USBlib/USB/Class/Device/../../Core/XMC4000/../XMC4000/Endpoint_XMC4000.h ****   The author disclaims all warranties with regard to this
  22:/opt/XMClib/XMC_Peripheral_Library_v2.1.16/ThirdPartyLibraries/USBlib/USB/Class/Device/../../Core/XMC4000/../XMC4000/Endpoint_XMC4000.h ****   software, including all implied warranties of merchantability
  23:/opt/XMClib/XMC_Peripheral_Library_v2.1.16/ThirdPartyLibraries/USBlib/USB/Class/Device/../../Core/XMC4000/../XMC4000/Endpoint_XMC4000.h ****   and fitness.  In no event shall the author be liable for any
  24:/opt/XMClib/XMC_Peripheral_Library_v2.1.16/ThirdPartyLibraries/USBlib/USB/Class/Device/../../Core/XMC4000/../XMC4000/Endpoint_XMC4000.h ****   special, indirect or consequential damages or any damages
  25:/opt/XMClib/XMC_Peripheral_Library_v2.1.16/ThirdPartyLibraries/USBlib/USB/Class/Device/../../Core/XMC4000/../XMC4000/Endpoint_XMC4000.h ****   whatsoever resulting from loss of use, data or profits, whether
  26:/opt/XMClib/XMC_Peripheral_Library_v2.1.16/ThirdPartyLibraries/USBlib/USB/Class/Device/../../Core/XMC4000/../XMC4000/Endpoint_XMC4000.h ****   in an action of contract, negligence or other tortious action,
  27:/opt/XMClib/XMC_Peripheral_Library_v2.1.16/ThirdPartyLibraries/USBlib/USB/Class/Device/../../Core/XMC4000/../XMC4000/Endpoint_XMC4000.h ****   arising out of or in connection with the use or performance of
  28:/opt/XMClib/XMC_Peripheral_Library_v2.1.16/ThirdPartyLibraries/USBlib/USB/Class/Device/../../Core/XMC4000/../XMC4000/Endpoint_XMC4000.h ****   this software.
  29:/opt/XMClib/XMC_Peripheral_Library_v2.1.16/ThirdPartyLibraries/USBlib/USB/Class/Device/../../Core/XMC4000/../XMC4000/Endpoint_XMC4000.h **** */
  30:/opt/XMClib/XMC_Peripheral_Library_v2.1.16/ThirdPartyLibraries/USBlib/USB/Class/Device/../../Core/XMC4000/../XMC4000/Endpoint_XMC4000.h **** /*******************************************************************************
  31:/opt/XMClib/XMC_Peripheral_Library_v2.1.16/ThirdPartyLibraries/USBlib/USB/Class/Device/../../Core/XMC4000/../XMC4000/Endpoint_XMC4000.h ****  *
  32:/opt/XMClib/XMC_Peripheral_Library_v2.1.16/ThirdPartyLibraries/USBlib/USB/Class/Device/../../Core/XMC4000/../XMC4000/Endpoint_XMC4000.h ****  * Copyright (C) 2013 Infineon Technologies AG. All rights reserved.
  33:/opt/XMClib/XMC_Peripheral_Library_v2.1.16/ThirdPartyLibraries/USBlib/USB/Class/Device/../../Core/XMC4000/../XMC4000/Endpoint_XMC4000.h ****  *
  34:/opt/XMClib/XMC_Peripheral_Library_v2.1.16/ThirdPartyLibraries/USBlib/USB/Class/Device/../../Core/XMC4000/../XMC4000/Endpoint_XMC4000.h ****  * Infineon Technologies AG (Infineon) is supplying this software for use with
  35:/opt/XMClib/XMC_Peripheral_Library_v2.1.16/ThirdPartyLibraries/USBlib/USB/Class/Device/../../Core/XMC4000/../XMC4000/Endpoint_XMC4000.h ****  * Infineon's microcontrollers.
  36:/opt/XMClib/XMC_Peripheral_Library_v2.1.16/ThirdPartyLibraries/USBlib/USB/Class/Device/../../Core/XMC4000/../XMC4000/Endpoint_XMC4000.h ****  * This file can be freely distributed within development tools that are
  37:/opt/XMClib/XMC_Peripheral_Library_v2.1.16/ThirdPartyLibraries/USBlib/USB/Class/Device/../../Core/XMC4000/../XMC4000/Endpoint_XMC4000.h ****  * supporting such microcontrollers.
  38:/opt/XMClib/XMC_Peripheral_Library_v2.1.16/ThirdPartyLibraries/USBlib/USB/Class/Device/../../Core/XMC4000/../XMC4000/Endpoint_XMC4000.h ****  *
  39:/opt/XMClib/XMC_Peripheral_Library_v2.1.16/ThirdPartyLibraries/USBlib/USB/Class/Device/../../Core/XMC4000/../XMC4000/Endpoint_XMC4000.h ****  * THIS SOFTWARE IS PROVIDED "AS IS".  NO WARRANTIES, WHETHER EXPRESS, IMPLIED
  40:/opt/XMClib/XMC_Peripheral_Library_v2.1.16/ThirdPartyLibraries/USBlib/USB/Class/Device/../../Core/XMC4000/../XMC4000/Endpoint_XMC4000.h ****  * OR STATUTORY, INCLUDING, BUT NOT LIMITED TO, IMPLIED WARRANTIES OF
  41:/opt/XMClib/XMC_Peripheral_Library_v2.1.16/ThirdPartyLibraries/USBlib/USB/Class/Device/../../Core/XMC4000/../XMC4000/Endpoint_XMC4000.h ****  * MERCHANTABILITY AND FITNESS FOR A PARTICULAR PURPOSE APPLY TO THIS SOFTWARE.
  42:/opt/XMClib/XMC_Peripheral_Library_v2.1.16/ThirdPartyLibraries/USBlib/USB/Class/Device/../../Core/XMC4000/../XMC4000/Endpoint_XMC4000.h ****  * INFINEON SHALL NOT, IN ANY CIRCUMSTANCES, BE LIABLE FOR SPECIAL, INCIDENTAL,
  43:/opt/XMClib/XMC_Peripheral_Library_v2.1.16/ThirdPartyLibraries/USBlib/USB/Class/Device/../../Core/XMC4000/../XMC4000/Endpoint_XMC4000.h ****  * OR CONSEQUENTIAL DAMAGES, FOR ANY REASON WHATSOEVER.
  44:/opt/XMClib/XMC_Peripheral_Library_v2.1.16/ThirdPartyLibraries/USBlib/USB/Class/Device/../../Core/XMC4000/../XMC4000/Endpoint_XMC4000.h ****  *
  45:/opt/XMClib/XMC_Peripheral_Library_v2.1.16/ThirdPartyLibraries/USBlib/USB/Class/Device/../../Core/XMC4000/../XMC4000/Endpoint_XMC4000.h ****  */
  46:/opt/XMClib/XMC_Peripheral_Library_v2.1.16/ThirdPartyLibraries/USBlib/USB/Class/Device/../../Core/XMC4000/../XMC4000/Endpoint_XMC4000.h **** 
  47:/opt/XMClib/XMC_Peripheral_Library_v2.1.16/ThirdPartyLibraries/USBlib/USB/Class/Device/../../Core/XMC4000/../XMC4000/Endpoint_XMC4000.h **** /** \file
  48:/opt/XMClib/XMC_Peripheral_Library_v2.1.16/ThirdPartyLibraries/USBlib/USB/Class/Device/../../Core/XMC4000/../XMC4000/Endpoint_XMC4000.h ****  *
  49:/opt/XMClib/XMC_Peripheral_Library_v2.1.16/ThirdPartyLibraries/USBlib/USB/Class/Device/../../Core/XMC4000/../XMC4000/Endpoint_XMC4000.h ****  *  Functions, macros, variables, enums and types related to data reading and writing of primitive 
  50:/opt/XMClib/XMC_Peripheral_Library_v2.1.16/ThirdPartyLibraries/USBlib/USB/Class/Device/../../Core/XMC4000/../XMC4000/Endpoint_XMC4000.h ****  *  from and to endpoints.
  51:/opt/XMClib/XMC_Peripheral_Library_v2.1.16/ThirdPartyLibraries/USBlib/USB/Class/Device/../../Core/XMC4000/../XMC4000/Endpoint_XMC4000.h ****  */
  52:/opt/XMClib/XMC_Peripheral_Library_v2.1.16/ThirdPartyLibraries/USBlib/USB/Class/Device/../../Core/XMC4000/../XMC4000/Endpoint_XMC4000.h **** 
  53:/opt/XMClib/XMC_Peripheral_Library_v2.1.16/ThirdPartyLibraries/USBlib/USB/Class/Device/../../Core/XMC4000/../XMC4000/Endpoint_XMC4000.h **** /** \ingroup Group_EndpointPacketManagement
  54:/opt/XMClib/XMC_Peripheral_Library_v2.1.16/ThirdPartyLibraries/USBlib/USB/Class/Device/../../Core/XMC4000/../XMC4000/Endpoint_XMC4000.h ****  *
  55:/opt/XMClib/XMC_Peripheral_Library_v2.1.16/ThirdPartyLibraries/USBlib/USB/Class/Device/../../Core/XMC4000/../XMC4000/Endpoint_XMC4000.h ****  *  Functions, macros, variables, enums and types related to packet management of endpoints.
  56:/opt/XMClib/XMC_Peripheral_Library_v2.1.16/ThirdPartyLibraries/USBlib/USB/Class/Device/../../Core/XMC4000/../XMC4000/Endpoint_XMC4000.h ****  */
  57:/opt/XMClib/XMC_Peripheral_Library_v2.1.16/ThirdPartyLibraries/USBlib/USB/Class/Device/../../Core/XMC4000/../XMC4000/Endpoint_XMC4000.h **** 
  58:/opt/XMClib/XMC_Peripheral_Library_v2.1.16/ThirdPartyLibraries/USBlib/USB/Class/Device/../../Core/XMC4000/../XMC4000/Endpoint_XMC4000.h **** /** \ingroup Group_EndpointManagement
  59:/opt/XMClib/XMC_Peripheral_Library_v2.1.16/ThirdPartyLibraries/USBlib/USB/Class/Device/../../Core/XMC4000/../XMC4000/Endpoint_XMC4000.h ****  *  Functions, macros and enums related to endpoint management when in USB Device mode. This
  60:/opt/XMClib/XMC_Peripheral_Library_v2.1.16/ThirdPartyLibraries/USBlib/USB/Class/Device/../../Core/XMC4000/../XMC4000/Endpoint_XMC4000.h ****  *  module contains the endpoint management macros, as well as endpoint interrupt and data
  61:/opt/XMClib/XMC_Peripheral_Library_v2.1.16/ThirdPartyLibraries/USBlib/USB/Class/Device/../../Core/XMC4000/../XMC4000/Endpoint_XMC4000.h ****  *  send/receive functions for various data types.
  62:/opt/XMClib/XMC_Peripheral_Library_v2.1.16/ThirdPartyLibraries/USBlib/USB/Class/Device/../../Core/XMC4000/../XMC4000/Endpoint_XMC4000.h ****  *
  63:/opt/XMClib/XMC_Peripheral_Library_v2.1.16/ThirdPartyLibraries/USBlib/USB/Class/Device/../../Core/XMC4000/../XMC4000/Endpoint_XMC4000.h ****  *  @{
  64:/opt/XMClib/XMC_Peripheral_Library_v2.1.16/ThirdPartyLibraries/USBlib/USB/Class/Device/../../Core/XMC4000/../XMC4000/Endpoint_XMC4000.h ****  */
  65:/opt/XMClib/XMC_Peripheral_Library_v2.1.16/ThirdPartyLibraries/USBlib/USB/Class/Device/../../Core/XMC4000/../XMC4000/Endpoint_XMC4000.h **** 
  66:/opt/XMClib/XMC_Peripheral_Library_v2.1.16/ThirdPartyLibraries/USBlib/USB/Class/Device/../../Core/XMC4000/../XMC4000/Endpoint_XMC4000.h **** #ifndef ENDPOINT_XMC4000_H_
  67:/opt/XMClib/XMC_Peripheral_Library_v2.1.16/ThirdPartyLibraries/USBlib/USB/Class/Device/../../Core/XMC4000/../XMC4000/Endpoint_XMC4000.h **** #define ENDPOINT_XMC4000_H_
  68:/opt/XMClib/XMC_Peripheral_Library_v2.1.16/ThirdPartyLibraries/USBlib/USB/Class/Device/../../Core/XMC4000/../XMC4000/Endpoint_XMC4000.h **** 
  69:/opt/XMClib/XMC_Peripheral_Library_v2.1.16/ThirdPartyLibraries/USBlib/USB/Class/Device/../../Core/XMC4000/../XMC4000/Endpoint_XMC4000.h **** 		#include "../../Common/Common.h"
  70:/opt/XMClib/XMC_Peripheral_Library_v2.1.16/ThirdPartyLibraries/USBlib/USB/Class/Device/../../Core/XMC4000/../XMC4000/Endpoint_XMC4000.h **** 		#include "../USBTask.h"
  71:/opt/XMClib/XMC_Peripheral_Library_v2.1.16/ThirdPartyLibraries/USBlib/USB/Class/Device/../../Core/XMC4000/../XMC4000/Endpoint_XMC4000.h **** 		#include "../USBInterrupt.h"
  72:/opt/XMClib/XMC_Peripheral_Library_v2.1.16/ThirdPartyLibraries/USBlib/USB/Class/Device/../../Core/XMC4000/../XMC4000/Endpoint_XMC4000.h **** 		#include "../USBController.h"
  73:/opt/XMClib/XMC_Peripheral_Library_v2.1.16/ThirdPartyLibraries/USBlib/USB/Class/Device/../../Core/XMC4000/../XMC4000/Endpoint_XMC4000.h **** 
  74:/opt/XMClib/XMC_Peripheral_Library_v2.1.16/ThirdPartyLibraries/USBlib/USB/Class/Device/../../Core/XMC4000/../XMC4000/Endpoint_XMC4000.h **** /* Enable C linkage for C++ Compilers: */
  75:/opt/XMClib/XMC_Peripheral_Library_v2.1.16/ThirdPartyLibraries/USBlib/USB/Class/Device/../../Core/XMC4000/../XMC4000/Endpoint_XMC4000.h **** #if defined(__cplusplus)
  76:/opt/XMClib/XMC_Peripheral_Library_v2.1.16/ThirdPartyLibraries/USBlib/USB/Class/Device/../../Core/XMC4000/../XMC4000/Endpoint_XMC4000.h **** 	extern "C" {
  77:/opt/XMClib/XMC_Peripheral_Library_v2.1.16/ThirdPartyLibraries/USBlib/USB/Class/Device/../../Core/XMC4000/../XMC4000/Endpoint_XMC4000.h **** #endif
  78:/opt/XMClib/XMC_Peripheral_Library_v2.1.16/ThirdPartyLibraries/USBlib/USB/Class/Device/../../Core/XMC4000/../XMC4000/Endpoint_XMC4000.h **** 
  79:/opt/XMClib/XMC_Peripheral_Library_v2.1.16/ThirdPartyLibraries/USBlib/USB/Class/Device/../../Core/XMC4000/../XMC4000/Endpoint_XMC4000.h **** 	/* Preprocessor Checks: */
  80:/opt/XMClib/XMC_Peripheral_Library_v2.1.16/ThirdPartyLibraries/USBlib/USB/Class/Device/../../Core/XMC4000/../XMC4000/Endpoint_XMC4000.h **** 		#if !defined(__INCLUDE_FROM_USB_DRIVER)
  81:/opt/XMClib/XMC_Peripheral_Library_v2.1.16/ThirdPartyLibraries/USBlib/USB/Class/Device/../../Core/XMC4000/../XMC4000/Endpoint_XMC4000.h **** 			#error Do not include this file directly. Include LUFA/Drivers/USB/USB.h instead.
  82:/opt/XMClib/XMC_Peripheral_Library_v2.1.16/ThirdPartyLibraries/USBlib/USB/Class/Device/../../Core/XMC4000/../XMC4000/Endpoint_XMC4000.h **** 		#endif
  83:/opt/XMClib/XMC_Peripheral_Library_v2.1.16/ThirdPartyLibraries/USBlib/USB/Class/Device/../../Core/XMC4000/../XMC4000/Endpoint_XMC4000.h **** 
  84:/opt/XMClib/XMC_Peripheral_Library_v2.1.16/ThirdPartyLibraries/USBlib/USB/Class/Device/../../Core/XMC4000/../XMC4000/Endpoint_XMC4000.h **** 	/* Public Interface - May be used in end-application: */
  85:/opt/XMClib/XMC_Peripheral_Library_v2.1.16/ThirdPartyLibraries/USBlib/USB/Class/Device/../../Core/XMC4000/../XMC4000/Endpoint_XMC4000.h ****             
  86:/opt/XMClib/XMC_Peripheral_Library_v2.1.16/ThirdPartyLibraries/USBlib/USB/Class/Device/../../Core/XMC4000/../XMC4000/Endpoint_XMC4000.h **** 	/** Enum for the possible error return codes of the \ref Endpoint_WaitUntilReady() function.
  87:/opt/XMClib/XMC_Peripheral_Library_v2.1.16/ThirdPartyLibraries/USBlib/USB/Class/Device/../../Core/XMC4000/../XMC4000/Endpoint_XMC4000.h **** 	 *
  88:/opt/XMClib/XMC_Peripheral_Library_v2.1.16/ThirdPartyLibraries/USBlib/USB/Class/Device/../../Core/XMC4000/../XMC4000/Endpoint_XMC4000.h **** 	 *  \ingroup Group_EndpointRW
  89:/opt/XMClib/XMC_Peripheral_Library_v2.1.16/ThirdPartyLibraries/USBlib/USB/Class/Device/../../Core/XMC4000/../XMC4000/Endpoint_XMC4000.h **** 	 */
  90:/opt/XMClib/XMC_Peripheral_Library_v2.1.16/ThirdPartyLibraries/USBlib/USB/Class/Device/../../Core/XMC4000/../XMC4000/Endpoint_XMC4000.h **** 	enum Endpoint_WaitUntilReady_ErrorCodes_t
  91:/opt/XMClib/XMC_Peripheral_Library_v2.1.16/ThirdPartyLibraries/USBlib/USB/Class/Device/../../Core/XMC4000/../XMC4000/Endpoint_XMC4000.h **** 	{
  92:/opt/XMClib/XMC_Peripheral_Library_v2.1.16/ThirdPartyLibraries/USBlib/USB/Class/Device/../../Core/XMC4000/../XMC4000/Endpoint_XMC4000.h **** 		ENDPOINT_READYWAIT_NoError                 = 0, /**< Endpoint is ready for next packet, no error.
  93:/opt/XMClib/XMC_Peripheral_Library_v2.1.16/ThirdPartyLibraries/USBlib/USB/Class/Device/../../Core/XMC4000/../XMC4000/Endpoint_XMC4000.h **** 		ENDPOINT_READYWAIT_EndpointStalled         = 1, /**< The endpoint was stalled during the stream
  94:/opt/XMClib/XMC_Peripheral_Library_v2.1.16/ThirdPartyLibraries/USBlib/USB/Class/Device/../../Core/XMC4000/../XMC4000/Endpoint_XMC4000.h **** 														 *   transfer by the host or device.
  95:/opt/XMClib/XMC_Peripheral_Library_v2.1.16/ThirdPartyLibraries/USBlib/USB/Class/Device/../../Core/XMC4000/../XMC4000/Endpoint_XMC4000.h **** 														 */
  96:/opt/XMClib/XMC_Peripheral_Library_v2.1.16/ThirdPartyLibraries/USBlib/USB/Class/Device/../../Core/XMC4000/../XMC4000/Endpoint_XMC4000.h **** 		ENDPOINT_READYWAIT_DeviceDisconnected      = 2,	/**< Device was disconnected from the host while
  97:/opt/XMClib/XMC_Peripheral_Library_v2.1.16/ThirdPartyLibraries/USBlib/USB/Class/Device/../../Core/XMC4000/../XMC4000/Endpoint_XMC4000.h **** 														 *   waiting for the endpoint to become ready.
  98:/opt/XMClib/XMC_Peripheral_Library_v2.1.16/ThirdPartyLibraries/USBlib/USB/Class/Device/../../Core/XMC4000/../XMC4000/Endpoint_XMC4000.h **** 														 */
  99:/opt/XMClib/XMC_Peripheral_Library_v2.1.16/ThirdPartyLibraries/USBlib/USB/Class/Device/../../Core/XMC4000/../XMC4000/Endpoint_XMC4000.h **** 		ENDPOINT_READYWAIT_BusSuspended            = 3, /**< The USB bus has been suspended by the host a
 100:/opt/XMClib/XMC_Peripheral_Library_v2.1.16/ThirdPartyLibraries/USBlib/USB/Class/Device/../../Core/XMC4000/../XMC4000/Endpoint_XMC4000.h **** 														 *   no USB endpoint traffic can occur until the bus
 101:/opt/XMClib/XMC_Peripheral_Library_v2.1.16/ThirdPartyLibraries/USBlib/USB/Class/Device/../../Core/XMC4000/../XMC4000/Endpoint_XMC4000.h **** 														 *   has resumed.
 102:/opt/XMClib/XMC_Peripheral_Library_v2.1.16/ThirdPartyLibraries/USBlib/USB/Class/Device/../../Core/XMC4000/../XMC4000/Endpoint_XMC4000.h **** 														 */
 103:/opt/XMClib/XMC_Peripheral_Library_v2.1.16/ThirdPartyLibraries/USBlib/USB/Class/Device/../../Core/XMC4000/../XMC4000/Endpoint_XMC4000.h **** 		ENDPOINT_READYWAIT_Timeout                 = 4, /**< The host failed to accept or send the next p
 104:/opt/XMClib/XMC_Peripheral_Library_v2.1.16/ThirdPartyLibraries/USBlib/USB/Class/Device/../../Core/XMC4000/../XMC4000/Endpoint_XMC4000.h **** 														 *   within the software timeout period set by the
 105:/opt/XMClib/XMC_Peripheral_Library_v2.1.16/ThirdPartyLibraries/USBlib/USB/Class/Device/../../Core/XMC4000/../XMC4000/Endpoint_XMC4000.h **** 														 *   \ref USB_STREAM_TIMEOUT_MS macro.
 106:/opt/XMClib/XMC_Peripheral_Library_v2.1.16/ThirdPartyLibraries/USBlib/USB/Class/Device/../../Core/XMC4000/../XMC4000/Endpoint_XMC4000.h **** 														 */
 107:/opt/XMClib/XMC_Peripheral_Library_v2.1.16/ThirdPartyLibraries/USBlib/USB/Class/Device/../../Core/XMC4000/../XMC4000/Endpoint_XMC4000.h **** 	};
 108:/opt/XMClib/XMC_Peripheral_Library_v2.1.16/ThirdPartyLibraries/USBlib/USB/Class/Device/../../Core/XMC4000/../XMC4000/Endpoint_XMC4000.h **** 
 109:/opt/XMClib/XMC_Peripheral_Library_v2.1.16/ThirdPartyLibraries/USBlib/USB/Class/Device/../../Core/XMC4000/../XMC4000/Endpoint_XMC4000.h **** 	/** Get the endpoint address of the currently selected endpoint. This is typically used to save
 110:/opt/XMClib/XMC_Peripheral_Library_v2.1.16/ThirdPartyLibraries/USBlib/USB/Class/Device/../../Core/XMC4000/../XMC4000/Endpoint_XMC4000.h **** 	 *  the currently selected endpoint so that it can be restored after another endpoint has been
 111:/opt/XMClib/XMC_Peripheral_Library_v2.1.16/ThirdPartyLibraries/USBlib/USB/Class/Device/../../Core/XMC4000/../XMC4000/Endpoint_XMC4000.h **** 	 *  manipulated.
 112:/opt/XMClib/XMC_Peripheral_Library_v2.1.16/ThirdPartyLibraries/USBlib/USB/Class/Device/../../Core/XMC4000/../XMC4000/Endpoint_XMC4000.h **** 	 *
 113:/opt/XMClib/XMC_Peripheral_Library_v2.1.16/ThirdPartyLibraries/USBlib/USB/Class/Device/../../Core/XMC4000/../XMC4000/Endpoint_XMC4000.h **** 	 *  \return Index of the currently selected endpoint.
 114:/opt/XMClib/XMC_Peripheral_Library_v2.1.16/ThirdPartyLibraries/USBlib/USB/Class/Device/../../Core/XMC4000/../XMC4000/Endpoint_XMC4000.h **** 	 */
 115:/opt/XMClib/XMC_Peripheral_Library_v2.1.16/ThirdPartyLibraries/USBlib/USB/Class/Device/../../Core/XMC4000/../XMC4000/Endpoint_XMC4000.h **** 	static inline uint8_t Endpoint_GetCurrentEndpoint(void) ATTR_WARN_UNUSED_RESULT ATTR_ALWAYS_INLINE
 116:/opt/XMClib/XMC_Peripheral_Library_v2.1.16/ThirdPartyLibraries/USBlib/USB/Class/Device/../../Core/XMC4000/../XMC4000/Endpoint_XMC4000.h **** 	static inline uint8_t Endpoint_GetCurrentEndpoint(void)
 117:/opt/XMClib/XMC_Peripheral_Library_v2.1.16/ThirdPartyLibraries/USBlib/USB/Class/Device/../../Core/XMC4000/../XMC4000/Endpoint_XMC4000.h **** 	{
 118:/opt/XMClib/XMC_Peripheral_Library_v2.1.16/ThirdPartyLibraries/USBlib/USB/Class/Device/../../Core/XMC4000/../XMC4000/Endpoint_XMC4000.h **** 		return device.CurrentDirection | device.CurrentEndpoint;
 119:/opt/XMClib/XMC_Peripheral_Library_v2.1.16/ThirdPartyLibraries/USBlib/USB/Class/Device/../../Core/XMC4000/../XMC4000/Endpoint_XMC4000.h **** 	}
 120:/opt/XMClib/XMC_Peripheral_Library_v2.1.16/ThirdPartyLibraries/USBlib/USB/Class/Device/../../Core/XMC4000/../XMC4000/Endpoint_XMC4000.h **** 
 121:/opt/XMClib/XMC_Peripheral_Library_v2.1.16/ThirdPartyLibraries/USBlib/USB/Class/Device/../../Core/XMC4000/../XMC4000/Endpoint_XMC4000.h **** 	/** Selects the given endpoint address.
 122:/opt/XMClib/XMC_Peripheral_Library_v2.1.16/ThirdPartyLibraries/USBlib/USB/Class/Device/../../Core/XMC4000/../XMC4000/Endpoint_XMC4000.h **** 	 *
 123:/opt/XMClib/XMC_Peripheral_Library_v2.1.16/ThirdPartyLibraries/USBlib/USB/Class/Device/../../Core/XMC4000/../XMC4000/Endpoint_XMC4000.h **** 	 *  Any endpoint operations which do not require the endpoint address to be indicated will operate
 124:/opt/XMClib/XMC_Peripheral_Library_v2.1.16/ThirdPartyLibraries/USBlib/USB/Class/Device/../../Core/XMC4000/../XMC4000/Endpoint_XMC4000.h **** 	 *  the currently selected endpoint.
 125:/opt/XMClib/XMC_Peripheral_Library_v2.1.16/ThirdPartyLibraries/USBlib/USB/Class/Device/../../Core/XMC4000/../XMC4000/Endpoint_XMC4000.h **** 	 *
 126:/opt/XMClib/XMC_Peripheral_Library_v2.1.16/ThirdPartyLibraries/USBlib/USB/Class/Device/../../Core/XMC4000/../XMC4000/Endpoint_XMC4000.h **** 	 *  \param[in] Address Endpoint address to select.
 127:/opt/XMClib/XMC_Peripheral_Library_v2.1.16/ThirdPartyLibraries/USBlib/USB/Class/Device/../../Core/XMC4000/../XMC4000/Endpoint_XMC4000.h **** 	 */
 128:/opt/XMClib/XMC_Peripheral_Library_v2.1.16/ThirdPartyLibraries/USBlib/USB/Class/Device/../../Core/XMC4000/../XMC4000/Endpoint_XMC4000.h **** 	static inline void Endpoint_SelectEndpoint(const uint8_t Address) ATTR_ALWAYS_INLINE;
 129:/opt/XMClib/XMC_Peripheral_Library_v2.1.16/ThirdPartyLibraries/USBlib/USB/Class/Device/../../Core/XMC4000/../XMC4000/Endpoint_XMC4000.h **** 	static inline void Endpoint_SelectEndpoint(const uint8_t Address)
 132              		.loc 2 129 21 view .LVU27
 133              	.LBB58:
 130:/opt/XMClib/XMC_Peripheral_Library_v2.1.16/ThirdPartyLibraries/USBlib/USB/Class/Device/../../Core/XMC4000/../XMC4000/Endpoint_XMC4000.h **** 	{
 131:/opt/XMClib/XMC_Peripheral_Library_v2.1.16/ThirdPartyLibraries/USBlib/USB/Class/Device/../../Core/XMC4000/../XMC4000/Endpoint_XMC4000.h **** 		device.CurrentEndpoint = Address & ENDPOINT_EPNUM_MASK;
 134              		.loc 2 131 3 view .LVU28
 135              		.loc 2 131 26 is_stmt 0 view .LVU29
 136 0012 0C4A     		ldr	r2, .L13+4
 137              		.loc 2 131 36 view .LVU30
 138 0014 03F00F01 		and	r1, r3, #15
 139              	.LVL8:
 140              		.loc 2 131 26 view .LVU31
 141 0018 82F83C11 		strb	r1, [r2, #316]
 132:/opt/XMClib/XMC_Peripheral_Library_v2.1.16/ThirdPartyLibraries/USBlib/USB/Class/Device/../../Core/XMC4000/../XMC4000/Endpoint_XMC4000.h **** 		device.CurrentDirection = (Address & ENDPOINT_DIR_MASK);
 142              		.loc 2 132 3 is_stmt 1 view .LVU32
 143              		.loc 2 132 38 is_stmt 0 view .LVU33
 144 001c 23F07F03 		bic	r3, r3, #127
 145              	.LVL9:
 146              		.loc 2 132 27 view .LVU34
 147 0020 82F83D31 		strb	r3, [r2, #317]
 148              	.LVL10:
 149              		.loc 2 132 27 view .LVU35
 150              	.LBE58:
 151              	.LBE57:
 155:/opt/XMClib/XMC_Peripheral_Library_v2.1.16/ThirdPartyLibraries/USBlib/USB/Class/Device/CDCClassDevice.c **** 	return Endpoint_Write_Stream_LE(String, strlen(String), NULL);
 152              		.loc 1 155 2 is_stmt 1 view .LVU36
 153              		.loc 1 155 42 is_stmt 0 view .LVU37
 154 0024 2046     		mov	r0, r4
 155              	.LVL11:
 156              		.loc 1 155 42 view .LVU38
 157 0026 FFF7FEFF 		bl	strlen
 158              	.LVL12:
 159              		.loc 1 155 9 discriminator 1 view .LVU39
 160 002a 0022     		movs	r2, #0
 161 002c 81B2     		uxth	r1, r0
 162 002e 2046     		mov	r0, r4
 163 0030 FFF7FEFF 		bl	Endpoint_Write_Stream_LE
 164              	.LVL13:
 165              	.L6:
 156:/opt/XMClib/XMC_Peripheral_Library_v2.1.16/ThirdPartyLibraries/USBlib/USB/Class/Device/CDCClassDevice.c **** }
 166              		.loc 1 156 1 view .LVU40
 167 0034 10BD     		pop	{r4, pc}
 168              	.LVL14:
 169              	.L7:
 170              	.LCFI2:
 171              		.cfi_def_cfa_offset 0
 172              		.cfi_restore 4
 173              		.cfi_restore 14
 152:/opt/XMClib/XMC_Peripheral_Library_v2.1.16/ThirdPartyLibraries/USBlib/USB/Class/Device/CDCClassDevice.c **** 
 174              		.loc 1 152 11 view .LVU41
 175 0036 0220     		movs	r0, #2
 176              	.LVL15:
 177              		.loc 1 156 1 view .LVU42
 178 0038 7047     		bx	lr
 179              	.LVL16:
 180              	.L8:
 181              	.LCFI3:
 182              		.cfi_def_cfa_offset 8
 183              		.cfi_offset 4, -8
 184              		.cfi_offset 14, -4
 152:/opt/XMClib/XMC_Peripheral_Library_v2.1.16/ThirdPartyLibraries/USBlib/USB/Class/Device/CDCClassDevice.c **** 
 185              		.loc 1 152 11 view .LVU43
 186 003a 0220     		movs	r0, #2
 187              	.LVL17:
 152:/opt/XMClib/XMC_Peripheral_Library_v2.1.16/ThirdPartyLibraries/USBlib/USB/Class/Device/CDCClassDevice.c **** 
 188              		.loc 1 152 11 view .LVU44
 189 003c FAE7     		b	.L6
 190              	.L14:
 191 003e 00BF     		.align	2
 192              	.L13:
 193 0040 00000000 		.word	USB_DeviceState
 194 0044 00000000 		.word	device
 195              		.cfi_endproc
 196              	.LFE196:
 198              		.section	.text.CDC_Device_SendData,"ax",%progbits
 199              		.align	1
 200              		.global	CDC_Device_SendData
 201              		.syntax unified
 202              		.thumb
 203              		.thumb_func
 205              	CDC_Device_SendData:
 206              	.LVL18:
 207              	.LFB197:
 157:/opt/XMClib/XMC_Peripheral_Library_v2.1.16/ThirdPartyLibraries/USBlib/USB/Class/Device/CDCClassDevice.c **** 
 158:/opt/XMClib/XMC_Peripheral_Library_v2.1.16/ThirdPartyLibraries/USBlib/USB/Class/Device/CDCClassDevice.c **** uint8_t CDC_Device_SendData(USB_ClassInfo_CDC_Device_t* const CDCInterfaceInfo,
 159:/opt/XMClib/XMC_Peripheral_Library_v2.1.16/ThirdPartyLibraries/USBlib/USB/Class/Device/CDCClassDevice.c ****                             const void* const Buffer,
 160:/opt/XMClib/XMC_Peripheral_Library_v2.1.16/ThirdPartyLibraries/USBlib/USB/Class/Device/CDCClassDevice.c ****                             const uint16_t Length)
 161:/opt/XMClib/XMC_Peripheral_Library_v2.1.16/ThirdPartyLibraries/USBlib/USB/Class/Device/CDCClassDevice.c **** {
 208              		.loc 1 161 1 is_stmt 1 view -0
 209              		.cfi_startproc
 210              		@ args = 0, pretend = 0, frame = 0
 211              		@ frame_needed = 0, uses_anonymous_args = 0
 212              		.loc 1 161 1 is_stmt 0 view .LVU46
 213 0000 08B5     		push	{r3, lr}
 214              	.LCFI4:
 215              		.cfi_def_cfa_offset 8
 216              		.cfi_offset 3, -8
 217              		.cfi_offset 14, -4
 218 0002 0346     		mov	r3, r0
 219 0004 0846     		mov	r0, r1
 220              	.LVL19:
 221              		.loc 1 161 1 view .LVU47
 222 0006 1146     		mov	r1, r2
 223              	.LVL20:
 162:/opt/XMClib/XMC_Peripheral_Library_v2.1.16/ThirdPartyLibraries/USBlib/USB/Class/Device/CDCClassDevice.c **** 	if ((USB_DeviceState != DEVICE_STATE_Configured) || !(CDCInterfaceInfo->State.LineEncoding.BaudRat
 224              		.loc 1 162 2 is_stmt 1 view .LVU48
 225              		.loc 1 162 23 is_stmt 0 view .LVU49
 226 0008 0B4A     		ldr	r2, .L20
 227              	.LVL21:
 228              		.loc 1 162 23 view .LVU50
 229 000a 1278     		ldrb	r2, [r2]	@ zero_extendqisi2
 230              		.loc 1 162 5 view .LVU51
 231 000c 042A     		cmp	r2, #4
 232 000e 0FD1     		bne	.L17
 233              		.loc 1 162 92 discriminator 1 view .LVU52
 234 0010 9A69     		ldr	r2, [r3, #24]	@ unaligned
 235              		.loc 1 162 51 discriminator 1 view .LVU53
 236 0012 7AB1     		cbz	r2, .L18
 163:/opt/XMClib/XMC_Peripheral_Library_v2.1.16/ThirdPartyLibraries/USBlib/USB/Class/Device/CDCClassDevice.c **** 	  return ENDPOINT_RWSTREAM_DeviceDisconnected;
 164:/opt/XMClib/XMC_Peripheral_Library_v2.1.16/ThirdPartyLibraries/USBlib/USB/Class/Device/CDCClassDevice.c **** 
 165:/opt/XMClib/XMC_Peripheral_Library_v2.1.16/ThirdPartyLibraries/USBlib/USB/Class/Device/CDCClassDevice.c **** 	Endpoint_SelectEndpoint(CDCInterfaceInfo->Config.DataINEndpoint.Address);
 237              		.loc 1 165 2 is_stmt 1 view .LVU54
 238 0014 9B78     		ldrb	r3, [r3, #2]	@ zero_extendqisi2
 239              	.LVL22:
 240              	.LBB59:
 241              	.LBI59:
 129:/opt/XMClib/XMC_Peripheral_Library_v2.1.16/ThirdPartyLibraries/USBlib/USB/Class/Device/../../Core/XMC4000/../XMC4000/Endpoint_XMC4000.h **** 	{
 242              		.loc 2 129 21 view .LVU55
 243              	.LBB60:
 131:/opt/XMClib/XMC_Peripheral_Library_v2.1.16/ThirdPartyLibraries/USBlib/USB/Class/Device/../../Core/XMC4000/../XMC4000/Endpoint_XMC4000.h **** 		device.CurrentDirection = (Address & ENDPOINT_DIR_MASK);
 244              		.loc 2 131 3 view .LVU56
 131:/opt/XMClib/XMC_Peripheral_Library_v2.1.16/ThirdPartyLibraries/USBlib/USB/Class/Device/../../Core/XMC4000/../XMC4000/Endpoint_XMC4000.h **** 		device.CurrentDirection = (Address & ENDPOINT_DIR_MASK);
 245              		.loc 2 131 26 is_stmt 0 view .LVU57
 246 0016 094A     		ldr	r2, .L20+4
 131:/opt/XMClib/XMC_Peripheral_Library_v2.1.16/ThirdPartyLibraries/USBlib/USB/Class/Device/../../Core/XMC4000/../XMC4000/Endpoint_XMC4000.h **** 		device.CurrentDirection = (Address & ENDPOINT_DIR_MASK);
 247              		.loc 2 131 36 view .LVU58
 248 0018 03F00F0C 		and	ip, r3, #15
 131:/opt/XMClib/XMC_Peripheral_Library_v2.1.16/ThirdPartyLibraries/USBlib/USB/Class/Device/../../Core/XMC4000/../XMC4000/Endpoint_XMC4000.h **** 		device.CurrentDirection = (Address & ENDPOINT_DIR_MASK);
 249              		.loc 2 131 26 view .LVU59
 250 001c 82F83CC1 		strb	ip, [r2, #316]
 251              		.loc 2 132 3 is_stmt 1 view .LVU60
 252              		.loc 2 132 38 is_stmt 0 view .LVU61
 253 0020 23F07F03 		bic	r3, r3, #127
 254              	.LVL23:
 255              		.loc 2 132 27 view .LVU62
 256 0024 82F83D31 		strb	r3, [r2, #317]
 257              	.LVL24:
 258              		.loc 2 132 27 view .LVU63
 259              	.LBE60:
 260              	.LBE59:
 166:/opt/XMClib/XMC_Peripheral_Library_v2.1.16/ThirdPartyLibraries/USBlib/USB/Class/Device/CDCClassDevice.c **** 	return Endpoint_Write_Stream_LE(Buffer, Length, NULL);
 261              		.loc 1 166 2 is_stmt 1 view .LVU64
 262              		.loc 1 166 9 is_stmt 0 view .LVU65
 263 0028 0022     		movs	r2, #0
 264 002a FFF7FEFF 		bl	Endpoint_Write_Stream_LE
 265              	.LVL25:
 266              	.L16:
 167:/opt/XMClib/XMC_Peripheral_Library_v2.1.16/ThirdPartyLibraries/USBlib/USB/Class/Device/CDCClassDevice.c **** }
 267              		.loc 1 167 1 view .LVU66
 268 002e 08BD     		pop	{r3, pc}
 269              	.LVL26:
 270              	.L17:
 163:/opt/XMClib/XMC_Peripheral_Library_v2.1.16/ThirdPartyLibraries/USBlib/USB/Class/Device/CDCClassDevice.c **** 
 271              		.loc 1 163 11 view .LVU67
 272 0030 0220     		movs	r0, #2
 273              	.LVL27:
 163:/opt/XMClib/XMC_Peripheral_Library_v2.1.16/ThirdPartyLibraries/USBlib/USB/Class/Device/CDCClassDevice.c **** 
 274              		.loc 1 163 11 view .LVU68
 275 0032 FCE7     		b	.L16
 276              	.LVL28:
 277              	.L18:
 163:/opt/XMClib/XMC_Peripheral_Library_v2.1.16/ThirdPartyLibraries/USBlib/USB/Class/Device/CDCClassDevice.c **** 
 278              		.loc 1 163 11 view .LVU69
 279 0034 0220     		movs	r0, #2
 280              	.LVL29:
 163:/opt/XMClib/XMC_Peripheral_Library_v2.1.16/ThirdPartyLibraries/USBlib/USB/Class/Device/CDCClassDevice.c **** 
 281              		.loc 1 163 11 view .LVU70
 282 0036 FAE7     		b	.L16
 283              	.L21:
 284              		.align	2
 285              	.L20:
 286 0038 00000000 		.word	USB_DeviceState
 287 003c 00000000 		.word	device
 288              		.cfi_endproc
 289              	.LFE197:
 291              		.section	.text.CDC_Device_SendByte,"ax",%progbits
 292              		.align	1
 293              		.global	CDC_Device_SendByte
 294              		.syntax unified
 295              		.thumb
 296              		.thumb_func
 298              	CDC_Device_SendByte:
 299              	.LVL30:
 300              	.LFB198:
 168:/opt/XMClib/XMC_Peripheral_Library_v2.1.16/ThirdPartyLibraries/USBlib/USB/Class/Device/CDCClassDevice.c **** 
 169:/opt/XMClib/XMC_Peripheral_Library_v2.1.16/ThirdPartyLibraries/USBlib/USB/Class/Device/CDCClassDevice.c **** uint8_t CDC_Device_SendByte(USB_ClassInfo_CDC_Device_t* const CDCInterfaceInfo,
 170:/opt/XMClib/XMC_Peripheral_Library_v2.1.16/ThirdPartyLibraries/USBlib/USB/Class/Device/CDCClassDevice.c ****                             const uint8_t Data)
 171:/opt/XMClib/XMC_Peripheral_Library_v2.1.16/ThirdPartyLibraries/USBlib/USB/Class/Device/CDCClassDevice.c **** {
 301              		.loc 1 171 1 is_stmt 1 view -0
 302              		.cfi_startproc
 303              		@ args = 0, pretend = 0, frame = 0
 304              		@ frame_needed = 0, uses_anonymous_args = 0
 172:/opt/XMClib/XMC_Peripheral_Library_v2.1.16/ThirdPartyLibraries/USBlib/USB/Class/Device/CDCClassDevice.c **** 	if ((USB_DeviceState != DEVICE_STATE_Configured) || !(CDCInterfaceInfo->State.LineEncoding.BaudRat
 305              		.loc 1 172 2 view .LVU72
 306              		.loc 1 172 23 is_stmt 0 view .LVU73
 307 0000 114B     		ldr	r3, .L31
 308 0002 1B78     		ldrb	r3, [r3]	@ zero_extendqisi2
 309              		.loc 1 172 5 view .LVU74
 310 0004 042B     		cmp	r3, #4
 311 0006 1AD1     		bne	.L25
 171:/opt/XMClib/XMC_Peripheral_Library_v2.1.16/ThirdPartyLibraries/USBlib/USB/Class/Device/CDCClassDevice.c **** 	if ((USB_DeviceState != DEVICE_STATE_Configured) || !(CDCInterfaceInfo->State.LineEncoding.BaudRat
 312              		.loc 1 171 1 view .LVU75
 313 0008 10B5     		push	{r4, lr}
 314              	.LCFI5:
 315              		.cfi_def_cfa_offset 8
 316              		.cfi_offset 4, -8
 317              		.cfi_offset 14, -4
 318 000a 0C46     		mov	r4, r1
 319              		.loc 1 172 92 discriminator 1 view .LVU76
 320 000c 8369     		ldr	r3, [r0, #24]	@ unaligned
 321              		.loc 1 172 51 discriminator 1 view .LVU77
 322 000e C3B1     		cbz	r3, .L26
 173:/opt/XMClib/XMC_Peripheral_Library_v2.1.16/ThirdPartyLibraries/USBlib/USB/Class/Device/CDCClassDevice.c **** 	  return ENDPOINT_RWSTREAM_DeviceDisconnected;
 174:/opt/XMClib/XMC_Peripheral_Library_v2.1.16/ThirdPartyLibraries/USBlib/USB/Class/Device/CDCClassDevice.c **** 
 175:/opt/XMClib/XMC_Peripheral_Library_v2.1.16/ThirdPartyLibraries/USBlib/USB/Class/Device/CDCClassDevice.c **** 	Endpoint_SelectEndpoint(CDCInterfaceInfo->Config.DataINEndpoint.Address);
 323              		.loc 1 175 2 is_stmt 1 view .LVU78
 324 0010 8378     		ldrb	r3, [r0, #2]	@ zero_extendqisi2
 325              	.LVL31:
 326              	.LBB61:
 327              	.LBI61:
 129:/opt/XMClib/XMC_Peripheral_Library_v2.1.16/ThirdPartyLibraries/USBlib/USB/Class/Device/../../Core/XMC4000/../XMC4000/Endpoint_XMC4000.h **** 	{
 328              		.loc 2 129 21 view .LVU79
 329              	.LBB62:
 131:/opt/XMClib/XMC_Peripheral_Library_v2.1.16/ThirdPartyLibraries/USBlib/USB/Class/Device/../../Core/XMC4000/../XMC4000/Endpoint_XMC4000.h **** 		device.CurrentDirection = (Address & ENDPOINT_DIR_MASK);
 330              		.loc 2 131 3 view .LVU80
 131:/opt/XMClib/XMC_Peripheral_Library_v2.1.16/ThirdPartyLibraries/USBlib/USB/Class/Device/../../Core/XMC4000/../XMC4000/Endpoint_XMC4000.h **** 		device.CurrentDirection = (Address & ENDPOINT_DIR_MASK);
 331              		.loc 2 131 26 is_stmt 0 view .LVU81
 332 0012 0E4A     		ldr	r2, .L31+4
 131:/opt/XMClib/XMC_Peripheral_Library_v2.1.16/ThirdPartyLibraries/USBlib/USB/Class/Device/../../Core/XMC4000/../XMC4000/Endpoint_XMC4000.h **** 		device.CurrentDirection = (Address & ENDPOINT_DIR_MASK);
 333              		.loc 2 131 36 view .LVU82
 334 0014 03F00F01 		and	r1, r3, #15
 335              	.LVL32:
 131:/opt/XMClib/XMC_Peripheral_Library_v2.1.16/ThirdPartyLibraries/USBlib/USB/Class/Device/../../Core/XMC4000/../XMC4000/Endpoint_XMC4000.h **** 		device.CurrentDirection = (Address & ENDPOINT_DIR_MASK);
 336              		.loc 2 131 26 view .LVU83
 337 0018 82F83C11 		strb	r1, [r2, #316]
 338              		.loc 2 132 3 is_stmt 1 view .LVU84
 339              		.loc 2 132 38 is_stmt 0 view .LVU85
 340 001c 23F07F03 		bic	r3, r3, #127
 341              	.LVL33:
 342              		.loc 2 132 27 view .LVU86
 343 0020 82F83D31 		strb	r3, [r2, #317]
 344              	.LVL34:
 345              		.loc 2 132 27 view .LVU87
 346              	.LBE62:
 347              	.LBE61:
 176:/opt/XMClib/XMC_Peripheral_Library_v2.1.16/ThirdPartyLibraries/USBlib/USB/Class/Device/CDCClassDevice.c **** 
 177:/opt/XMClib/XMC_Peripheral_Library_v2.1.16/ThirdPartyLibraries/USBlib/USB/Class/Device/CDCClassDevice.c **** 	if (!(Endpoint_IsReadWriteAllowed()))
 348              		.loc 1 177 2 is_stmt 1 view .LVU88
 349              		.loc 1 177 8 is_stmt 0 view .LVU89
 350 0024 FFF7FEFF 		bl	Endpoint_IsReadWriteAllowed
 351              	.LVL35:
 352              		.loc 1 177 5 discriminator 1 view .LVU90
 353 0028 20B9     		cbnz	r0, .L24
 354              	.LBB63:
 178:/opt/XMClib/XMC_Peripheral_Library_v2.1.16/ThirdPartyLibraries/USBlib/USB/Class/Device/CDCClassDevice.c **** 	{
 179:/opt/XMClib/XMC_Peripheral_Library_v2.1.16/ThirdPartyLibraries/USBlib/USB/Class/Device/CDCClassDevice.c **** 		Endpoint_ClearIN();
 355              		.loc 1 179 3 is_stmt 1 view .LVU91
 356 002a FFF7FEFF 		bl	Endpoint_ClearIN
 357              	.LVL36:
 180:/opt/XMClib/XMC_Peripheral_Library_v2.1.16/ThirdPartyLibraries/USBlib/USB/Class/Device/CDCClassDevice.c **** 
 181:/opt/XMClib/XMC_Peripheral_Library_v2.1.16/ThirdPartyLibraries/USBlib/USB/Class/Device/CDCClassDevice.c **** 		uint8_t ErrorCode;
 358              		.loc 1 181 3 view .LVU92
 182:/opt/XMClib/XMC_Peripheral_Library_v2.1.16/ThirdPartyLibraries/USBlib/USB/Class/Device/CDCClassDevice.c **** 
 183:/opt/XMClib/XMC_Peripheral_Library_v2.1.16/ThirdPartyLibraries/USBlib/USB/Class/Device/CDCClassDevice.c **** 		if ((ErrorCode = Endpoint_WaitUntilReady()) != ENDPOINT_READYWAIT_NoError)
 359              		.loc 1 183 3 view .LVU93
 360              		.loc 1 183 20 is_stmt 0 view .LVU94
 361 002e FFF7FEFF 		bl	Endpoint_WaitUntilReady
 362              	.LVL37:
 363              		.loc 1 183 6 discriminator 1 view .LVU95
 364 0032 18B9     		cbnz	r0, .L23
 365              	.LVL38:
 366              	.L24:
 367              		.loc 1 183 6 discriminator 1 view .LVU96
 368              	.LBE63:
 184:/opt/XMClib/XMC_Peripheral_Library_v2.1.16/ThirdPartyLibraries/USBlib/USB/Class/Device/CDCClassDevice.c **** 		  return ErrorCode;
 185:/opt/XMClib/XMC_Peripheral_Library_v2.1.16/ThirdPartyLibraries/USBlib/USB/Class/Device/CDCClassDevice.c **** 	}
 186:/opt/XMClib/XMC_Peripheral_Library_v2.1.16/ThirdPartyLibraries/USBlib/USB/Class/Device/CDCClassDevice.c **** 
 187:/opt/XMClib/XMC_Peripheral_Library_v2.1.16/ThirdPartyLibraries/USBlib/USB/Class/Device/CDCClassDevice.c **** 	Endpoint_Write_8(Data);
 369              		.loc 1 187 2 is_stmt 1 view .LVU97
 370 0034 2046     		mov	r0, r4
 371 0036 FFF7FEFF 		bl	Endpoint_Write_8
 372              	.LVL39:
 188:/opt/XMClib/XMC_Peripheral_Library_v2.1.16/ThirdPartyLibraries/USBlib/USB/Class/Device/CDCClassDevice.c **** 	return ENDPOINT_READYWAIT_NoError;
 373              		.loc 1 188 2 view .LVU98
 374              		.loc 1 188 9 is_stmt 0 view .LVU99
 375 003a 0020     		movs	r0, #0
 376              	.L23:
 189:/opt/XMClib/XMC_Peripheral_Library_v2.1.16/ThirdPartyLibraries/USBlib/USB/Class/Device/CDCClassDevice.c **** }
 377              		.loc 1 189 1 view .LVU100
 378 003c 10BD     		pop	{r4, pc}
 379              	.LVL40:
 380              	.L25:
 381              	.LCFI6:
 382              		.cfi_def_cfa_offset 0
 383              		.cfi_restore 4
 384              		.cfi_restore 14
 173:/opt/XMClib/XMC_Peripheral_Library_v2.1.16/ThirdPartyLibraries/USBlib/USB/Class/Device/CDCClassDevice.c **** 
 385              		.loc 1 173 11 view .LVU101
 386 003e 0220     		movs	r0, #2
 387              	.LVL41:
 388              		.loc 1 189 1 view .LVU102
 389 0040 7047     		bx	lr
 390              	.LVL42:
 391              	.L26:
 392              	.LCFI7:
 393              		.cfi_def_cfa_offset 8
 394              		.cfi_offset 4, -8
 395              		.cfi_offset 14, -4
 173:/opt/XMClib/XMC_Peripheral_Library_v2.1.16/ThirdPartyLibraries/USBlib/USB/Class/Device/CDCClassDevice.c **** 
 396              		.loc 1 173 11 view .LVU103
 397 0042 0220     		movs	r0, #2
 398              	.LVL43:
 173:/opt/XMClib/XMC_Peripheral_Library_v2.1.16/ThirdPartyLibraries/USBlib/USB/Class/Device/CDCClassDevice.c **** 
 399              		.loc 1 173 11 view .LVU104
 400 0044 FAE7     		b	.L23
 401              	.L32:
 402 0046 00BF     		.align	2
 403              	.L31:
 404 0048 00000000 		.word	USB_DeviceState
 405 004c 00000000 		.word	device
 406              		.cfi_endproc
 407              	.LFE198:
 409              		.section	.text.CDC_Device_Flush,"ax",%progbits
 410              		.align	1
 411              		.global	CDC_Device_Flush
 412              		.syntax unified
 413              		.thumb
 414              		.thumb_func
 416              	CDC_Device_Flush:
 417              	.LVL44:
 418              	.LFB199:
 190:/opt/XMClib/XMC_Peripheral_Library_v2.1.16/ThirdPartyLibraries/USBlib/USB/Class/Device/CDCClassDevice.c **** 
 191:/opt/XMClib/XMC_Peripheral_Library_v2.1.16/ThirdPartyLibraries/USBlib/USB/Class/Device/CDCClassDevice.c **** uint8_t CDC_Device_Flush(USB_ClassInfo_CDC_Device_t* const CDCInterfaceInfo)
 192:/opt/XMClib/XMC_Peripheral_Library_v2.1.16/ThirdPartyLibraries/USBlib/USB/Class/Device/CDCClassDevice.c **** {
 419              		.loc 1 192 1 is_stmt 1 view -0
 420              		.cfi_startproc
 421              		@ args = 0, pretend = 0, frame = 0
 422              		@ frame_needed = 0, uses_anonymous_args = 0
 423              		.loc 1 192 1 is_stmt 0 view .LVU106
 424 0000 10B5     		push	{r4, lr}
 425              	.LCFI8:
 426              		.cfi_def_cfa_offset 8
 427              		.cfi_offset 4, -8
 428              		.cfi_offset 14, -4
 193:/opt/XMClib/XMC_Peripheral_Library_v2.1.16/ThirdPartyLibraries/USBlib/USB/Class/Device/CDCClassDevice.c **** 	if ((USB_DeviceState != DEVICE_STATE_Configured) || !(CDCInterfaceInfo->State.LineEncoding.BaudRat
 429              		.loc 1 193 2 is_stmt 1 view .LVU107
 430              		.loc 1 193 23 is_stmt 0 view .LVU108
 431 0002 1C4B     		ldr	r3, .L45
 432 0004 1B78     		ldrb	r3, [r3]	@ zero_extendqisi2
 433              		.loc 1 193 5 view .LVU109
 434 0006 042B     		cmp	r3, #4
 435 0008 2FD1     		bne	.L37
 436              		.loc 1 193 92 discriminator 1 view .LVU110
 437 000a 8369     		ldr	r3, [r0, #24]	@ unaligned
 438              		.loc 1 193 51 discriminator 1 view .LVU111
 439 000c 83B3     		cbz	r3, .L38
 194:/opt/XMClib/XMC_Peripheral_Library_v2.1.16/ThirdPartyLibraries/USBlib/USB/Class/Device/CDCClassDevice.c **** 	  return ENDPOINT_RWSTREAM_DeviceDisconnected;
 195:/opt/XMClib/XMC_Peripheral_Library_v2.1.16/ThirdPartyLibraries/USBlib/USB/Class/Device/CDCClassDevice.c **** 
 196:/opt/XMClib/XMC_Peripheral_Library_v2.1.16/ThirdPartyLibraries/USBlib/USB/Class/Device/CDCClassDevice.c **** 	uint8_t ErrorCode;
 440              		.loc 1 196 2 is_stmt 1 view .LVU112
 197:/opt/XMClib/XMC_Peripheral_Library_v2.1.16/ThirdPartyLibraries/USBlib/USB/Class/Device/CDCClassDevice.c **** 
 198:/opt/XMClib/XMC_Peripheral_Library_v2.1.16/ThirdPartyLibraries/USBlib/USB/Class/Device/CDCClassDevice.c **** 	Endpoint_SelectEndpoint(CDCInterfaceInfo->Config.DataINEndpoint.Address);
 441              		.loc 1 198 2 view .LVU113
 442 000e 8278     		ldrb	r2, [r0, #2]	@ zero_extendqisi2
 443              	.LVL45:
 444              	.LBB64:
 445              	.LBI64:
 129:/opt/XMClib/XMC_Peripheral_Library_v2.1.16/ThirdPartyLibraries/USBlib/USB/Class/Device/../../Core/XMC4000/../XMC4000/Endpoint_XMC4000.h **** 	{
 446              		.loc 2 129 21 view .LVU114
 447              	.LBB65:
 131:/opt/XMClib/XMC_Peripheral_Library_v2.1.16/ThirdPartyLibraries/USBlib/USB/Class/Device/../../Core/XMC4000/../XMC4000/Endpoint_XMC4000.h **** 		device.CurrentDirection = (Address & ENDPOINT_DIR_MASK);
 448              		.loc 2 131 3 view .LVU115
 131:/opt/XMClib/XMC_Peripheral_Library_v2.1.16/ThirdPartyLibraries/USBlib/USB/Class/Device/../../Core/XMC4000/../XMC4000/Endpoint_XMC4000.h **** 		device.CurrentDirection = (Address & ENDPOINT_DIR_MASK);
 449              		.loc 2 131 36 is_stmt 0 view .LVU116
 450 0010 02F00F01 		and	r1, r2, #15
 131:/opt/XMClib/XMC_Peripheral_Library_v2.1.16/ThirdPartyLibraries/USBlib/USB/Class/Device/../../Core/XMC4000/../XMC4000/Endpoint_XMC4000.h **** 		device.CurrentDirection = (Address & ENDPOINT_DIR_MASK);
 451              		.loc 2 131 26 view .LVU117
 452 0014 184B     		ldr	r3, .L45+4
 453 0016 83F83C11 		strb	r1, [r3, #316]
 454              		.loc 2 132 3 is_stmt 1 view .LVU118
 455              		.loc 2 132 38 is_stmt 0 view .LVU119
 456 001a 22F07F02 		bic	r2, r2, #127
 457              	.LVL46:
 458              		.loc 2 132 27 view .LVU120
 459 001e 83F83D21 		strb	r2, [r3, #317]
 460              	.LVL47:
 461              		.loc 2 132 27 view .LVU121
 462              	.LBE65:
 463              	.LBE64:
 199:/opt/XMClib/XMC_Peripheral_Library_v2.1.16/ThirdPartyLibraries/USBlib/USB/Class/Device/CDCClassDevice.c **** 
 200:/opt/XMClib/XMC_Peripheral_Library_v2.1.16/ThirdPartyLibraries/USBlib/USB/Class/Device/CDCClassDevice.c **** 	if (!(Endpoint_BytesInEndpoint()))
 464              		.loc 1 200 2 is_stmt 1 view .LVU122
 465              	.LBB66:
 466              	.LBI66:
 133:/opt/XMClib/XMC_Peripheral_Library_v2.1.16/ThirdPartyLibraries/USBlib/USB/Class/Device/../../Core/XMC4000/../XMC4000/Endpoint_XMC4000.h **** 	}
 134:/opt/XMClib/XMC_Peripheral_Library_v2.1.16/ThirdPartyLibraries/USBlib/USB/Class/Device/../../Core/XMC4000/../XMC4000/Endpoint_XMC4000.h **** 
 135:/opt/XMClib/XMC_Peripheral_Library_v2.1.16/ThirdPartyLibraries/USBlib/USB/Class/Device/../../Core/XMC4000/../XMC4000/Endpoint_XMC4000.h **** 	/** Determines if the current CONTROL type endpoint has received a SETUP packet.
 136:/opt/XMClib/XMC_Peripheral_Library_v2.1.16/ThirdPartyLibraries/USBlib/USB/Class/Device/../../Core/XMC4000/../XMC4000/Endpoint_XMC4000.h **** 	 *
 137:/opt/XMClib/XMC_Peripheral_Library_v2.1.16/ThirdPartyLibraries/USBlib/USB/Class/Device/../../Core/XMC4000/../XMC4000/Endpoint_XMC4000.h **** 	 *  \ingroup Group_EndpointPacketManagement
 138:/opt/XMClib/XMC_Peripheral_Library_v2.1.16/ThirdPartyLibraries/USBlib/USB/Class/Device/../../Core/XMC4000/../XMC4000/Endpoint_XMC4000.h **** 	 *
 139:/opt/XMClib/XMC_Peripheral_Library_v2.1.16/ThirdPartyLibraries/USBlib/USB/Class/Device/../../Core/XMC4000/../XMC4000/Endpoint_XMC4000.h **** 	 *  \return Boolean \c true if the selected endpoint has received a SETUP packet, \c false otherwi
 140:/opt/XMClib/XMC_Peripheral_Library_v2.1.16/ThirdPartyLibraries/USBlib/USB/Class/Device/../../Core/XMC4000/../XMC4000/Endpoint_XMC4000.h **** 	 */
 141:/opt/XMClib/XMC_Peripheral_Library_v2.1.16/ThirdPartyLibraries/USBlib/USB/Class/Device/../../Core/XMC4000/../XMC4000/Endpoint_XMC4000.h **** 	static inline bool Endpoint_IsSETUPReceived(void) ATTR_WARN_UNUSED_RESULT ATTR_ALWAYS_INLINE;
 142:/opt/XMClib/XMC_Peripheral_Library_v2.1.16/ThirdPartyLibraries/USBlib/USB/Class/Device/../../Core/XMC4000/../XMC4000/Endpoint_XMC4000.h **** 	static inline bool Endpoint_IsSETUPReceived(void)
 143:/opt/XMClib/XMC_Peripheral_Library_v2.1.16/ThirdPartyLibraries/USBlib/USB/Class/Device/../../Core/XMC4000/../XMC4000/Endpoint_XMC4000.h **** 	{
 144:/opt/XMClib/XMC_Peripheral_Library_v2.1.16/ThirdPartyLibraries/USBlib/USB/Class/Device/../../Core/XMC4000/../XMC4000/Endpoint_XMC4000.h **** 		return device.IsSetupRecieved;
 145:/opt/XMClib/XMC_Peripheral_Library_v2.1.16/ThirdPartyLibraries/USBlib/USB/Class/Device/../../Core/XMC4000/../XMC4000/Endpoint_XMC4000.h **** 	}
 146:/opt/XMClib/XMC_Peripheral_Library_v2.1.16/ThirdPartyLibraries/USBlib/USB/Class/Device/../../Core/XMC4000/../XMC4000/Endpoint_XMC4000.h **** 
 147:/opt/XMClib/XMC_Peripheral_Library_v2.1.16/ThirdPartyLibraries/USBlib/USB/Class/Device/../../Core/XMC4000/../XMC4000/Endpoint_XMC4000.h **** 
 148:/opt/XMClib/XMC_Peripheral_Library_v2.1.16/ThirdPartyLibraries/USBlib/USB/Class/Device/../../Core/XMC4000/../XMC4000/Endpoint_XMC4000.h **** 	/** Clears a received SETUP packet on the currently selected CONTROL type endpoint, freeing up the
 149:/opt/XMClib/XMC_Peripheral_Library_v2.1.16/ThirdPartyLibraries/USBlib/USB/Class/Device/../../Core/XMC4000/../XMC4000/Endpoint_XMC4000.h **** 	 *  endpoint for the next packet.
 150:/opt/XMClib/XMC_Peripheral_Library_v2.1.16/ThirdPartyLibraries/USBlib/USB/Class/Device/../../Core/XMC4000/../XMC4000/Endpoint_XMC4000.h **** 	 *
 151:/opt/XMClib/XMC_Peripheral_Library_v2.1.16/ThirdPartyLibraries/USBlib/USB/Class/Device/../../Core/XMC4000/../XMC4000/Endpoint_XMC4000.h **** 	 *  \ingroup Group_EndpointPacketManagement
 152:/opt/XMClib/XMC_Peripheral_Library_v2.1.16/ThirdPartyLibraries/USBlib/USB/Class/Device/../../Core/XMC4000/../XMC4000/Endpoint_XMC4000.h **** 	 *
 153:/opt/XMClib/XMC_Peripheral_Library_v2.1.16/ThirdPartyLibraries/USBlib/USB/Class/Device/../../Core/XMC4000/../XMC4000/Endpoint_XMC4000.h **** 	 *  \note This is not applicable for non CONTROL type endpoints.
 154:/opt/XMClib/XMC_Peripheral_Library_v2.1.16/ThirdPartyLibraries/USBlib/USB/Class/Device/../../Core/XMC4000/../XMC4000/Endpoint_XMC4000.h **** 	 */
 155:/opt/XMClib/XMC_Peripheral_Library_v2.1.16/ThirdPartyLibraries/USBlib/USB/Class/Device/../../Core/XMC4000/../XMC4000/Endpoint_XMC4000.h **** 	static inline void Endpoint_ClearSETUP(void) ATTR_ALWAYS_INLINE;
 156:/opt/XMClib/XMC_Peripheral_Library_v2.1.16/ThirdPartyLibraries/USBlib/USB/Class/Device/../../Core/XMC4000/../XMC4000/Endpoint_XMC4000.h **** 	static inline void Endpoint_ClearSETUP(void)
 157:/opt/XMClib/XMC_Peripheral_Library_v2.1.16/ThirdPartyLibraries/USBlib/USB/Class/Device/../../Core/XMC4000/../XMC4000/Endpoint_XMC4000.h **** 	{
 158:/opt/XMClib/XMC_Peripheral_Library_v2.1.16/ThirdPartyLibraries/USBlib/USB/Class/Device/../../Core/XMC4000/../XMC4000/Endpoint_XMC4000.h **** 		device.IsSetupRecieved = 0;
 159:/opt/XMClib/XMC_Peripheral_Library_v2.1.16/ThirdPartyLibraries/USBlib/USB/Class/Device/../../Core/XMC4000/../XMC4000/Endpoint_XMC4000.h **** 	}
 160:/opt/XMClib/XMC_Peripheral_Library_v2.1.16/ThirdPartyLibraries/USBlib/USB/Class/Device/../../Core/XMC4000/../XMC4000/Endpoint_XMC4000.h **** 
 161:/opt/XMClib/XMC_Peripheral_Library_v2.1.16/ThirdPartyLibraries/USBlib/USB/Class/Device/../../Core/XMC4000/../XMC4000/Endpoint_XMC4000.h **** 	/** Nothing done in this function
 162:/opt/XMClib/XMC_Peripheral_Library_v2.1.16/ThirdPartyLibraries/USBlib/USB/Class/Device/../../Core/XMC4000/../XMC4000/Endpoint_XMC4000.h **** 	 *
 163:/opt/XMClib/XMC_Peripheral_Library_v2.1.16/ThirdPartyLibraries/USBlib/USB/Class/Device/../../Core/XMC4000/../XMC4000/Endpoint_XMC4000.h **** 	 */
 164:/opt/XMClib/XMC_Peripheral_Library_v2.1.16/ThirdPartyLibraries/USBlib/USB/Class/Device/../../Core/XMC4000/../XMC4000/Endpoint_XMC4000.h **** 	static inline void Endpoint_ClearStatusStage(void) ATTR_ALWAYS_INLINE;
 165:/opt/XMClib/XMC_Peripheral_Library_v2.1.16/ThirdPartyLibraries/USBlib/USB/Class/Device/../../Core/XMC4000/../XMC4000/Endpoint_XMC4000.h **** 	static inline void Endpoint_ClearStatusStage(void)
 166:/opt/XMClib/XMC_Peripheral_Library_v2.1.16/ThirdPartyLibraries/USBlib/USB/Class/Device/../../Core/XMC4000/../XMC4000/Endpoint_XMC4000.h **** 	{
 167:/opt/XMClib/XMC_Peripheral_Library_v2.1.16/ThirdPartyLibraries/USBlib/USB/Class/Device/../../Core/XMC4000/../XMC4000/Endpoint_XMC4000.h **** 
 168:/opt/XMClib/XMC_Peripheral_Library_v2.1.16/ThirdPartyLibraries/USBlib/USB/Class/Device/../../Core/XMC4000/../XMC4000/Endpoint_XMC4000.h **** 	}
 169:/opt/XMClib/XMC_Peripheral_Library_v2.1.16/ThirdPartyLibraries/USBlib/USB/Class/Device/../../Core/XMC4000/../XMC4000/Endpoint_XMC4000.h **** 
 170:/opt/XMClib/XMC_Peripheral_Library_v2.1.16/ThirdPartyLibraries/USBlib/USB/Class/Device/../../Core/XMC4000/../XMC4000/Endpoint_XMC4000.h **** 	/** Determines if the selected IN endpoint is ready for a new packet to be sent to the host.
 171:/opt/XMClib/XMC_Peripheral_Library_v2.1.16/ThirdPartyLibraries/USBlib/USB/Class/Device/../../Core/XMC4000/../XMC4000/Endpoint_XMC4000.h **** 	 *
 172:/opt/XMClib/XMC_Peripheral_Library_v2.1.16/ThirdPartyLibraries/USBlib/USB/Class/Device/../../Core/XMC4000/../XMC4000/Endpoint_XMC4000.h **** 	 *  \ingroup Group_EndpointPacketManagement
 173:/opt/XMClib/XMC_Peripheral_Library_v2.1.16/ThirdPartyLibraries/USBlib/USB/Class/Device/../../Core/XMC4000/../XMC4000/Endpoint_XMC4000.h **** 	 *
 174:/opt/XMClib/XMC_Peripheral_Library_v2.1.16/ThirdPartyLibraries/USBlib/USB/Class/Device/../../Core/XMC4000/../XMC4000/Endpoint_XMC4000.h **** 	 *  \return Boolean \c true if the current endpoint is ready for an IN packet, \c false otherwise.
 175:/opt/XMClib/XMC_Peripheral_Library_v2.1.16/ThirdPartyLibraries/USBlib/USB/Class/Device/../../Core/XMC4000/../XMC4000/Endpoint_XMC4000.h **** 	 */
 176:/opt/XMClib/XMC_Peripheral_Library_v2.1.16/ThirdPartyLibraries/USBlib/USB/Class/Device/../../Core/XMC4000/../XMC4000/Endpoint_XMC4000.h **** 	static inline bool Endpoint_IsINReady(void) ATTR_WARN_UNUSED_RESULT ATTR_ALWAYS_INLINE;
 177:/opt/XMClib/XMC_Peripheral_Library_v2.1.16/ThirdPartyLibraries/USBlib/USB/Class/Device/../../Core/XMC4000/../XMC4000/Endpoint_XMC4000.h **** 	static inline bool Endpoint_IsINReady(void)
 178:/opt/XMClib/XMC_Peripheral_Library_v2.1.16/ThirdPartyLibraries/USBlib/USB/Class/Device/../../Core/XMC4000/../XMC4000/Endpoint_XMC4000.h **** 	{
 179:/opt/XMClib/XMC_Peripheral_Library_v2.1.16/ThirdPartyLibraries/USBlib/USB/Class/Device/../../Core/XMC4000/../XMC4000/Endpoint_XMC4000.h **** 		USBD_Endpoint_t *ep = &device.Endpoints[device.CurrentEndpoint];
 180:/opt/XMClib/XMC_Peripheral_Library_v2.1.16/ThirdPartyLibraries/USBlib/USB/Class/Device/../../Core/XMC4000/../XMC4000/Endpoint_XMC4000.h **** 		return ep->InInUse == 0 && ep->IsEnabled;
 181:/opt/XMClib/XMC_Peripheral_Library_v2.1.16/ThirdPartyLibraries/USBlib/USB/Class/Device/../../Core/XMC4000/../XMC4000/Endpoint_XMC4000.h **** 	}
 182:/opt/XMClib/XMC_Peripheral_Library_v2.1.16/ThirdPartyLibraries/USBlib/USB/Class/Device/../../Core/XMC4000/../XMC4000/Endpoint_XMC4000.h **** 
 183:/opt/XMClib/XMC_Peripheral_Library_v2.1.16/ThirdPartyLibraries/USBlib/USB/Class/Device/../../Core/XMC4000/../XMC4000/Endpoint_XMC4000.h **** 	/** Determines if the selected OUT endpoint has received new packet from the host.
 184:/opt/XMClib/XMC_Peripheral_Library_v2.1.16/ThirdPartyLibraries/USBlib/USB/Class/Device/../../Core/XMC4000/../XMC4000/Endpoint_XMC4000.h **** 	 *
 185:/opt/XMClib/XMC_Peripheral_Library_v2.1.16/ThirdPartyLibraries/USBlib/USB/Class/Device/../../Core/XMC4000/../XMC4000/Endpoint_XMC4000.h **** 	 *  \ingroup Group_EndpointPacketManagement
 186:/opt/XMClib/XMC_Peripheral_Library_v2.1.16/ThirdPartyLibraries/USBlib/USB/Class/Device/../../Core/XMC4000/../XMC4000/Endpoint_XMC4000.h **** 	 *
 187:/opt/XMClib/XMC_Peripheral_Library_v2.1.16/ThirdPartyLibraries/USBlib/USB/Class/Device/../../Core/XMC4000/../XMC4000/Endpoint_XMC4000.h **** 	 *  \return Boolean \c true if current endpoint is has received an OUT packet, \c false otherwise.
 188:/opt/XMClib/XMC_Peripheral_Library_v2.1.16/ThirdPartyLibraries/USBlib/USB/Class/Device/../../Core/XMC4000/../XMC4000/Endpoint_XMC4000.h **** 	 */
 189:/opt/XMClib/XMC_Peripheral_Library_v2.1.16/ThirdPartyLibraries/USBlib/USB/Class/Device/../../Core/XMC4000/../XMC4000/Endpoint_XMC4000.h **** 	static inline bool Endpoint_IsOUTReceived(void) ATTR_WARN_UNUSED_RESULT ATTR_ALWAYS_INLINE;
 190:/opt/XMClib/XMC_Peripheral_Library_v2.1.16/ThirdPartyLibraries/USBlib/USB/Class/Device/../../Core/XMC4000/../XMC4000/Endpoint_XMC4000.h **** 	static inline bool Endpoint_IsOUTReceived(void)
 191:/opt/XMClib/XMC_Peripheral_Library_v2.1.16/ThirdPartyLibraries/USBlib/USB/Class/Device/../../Core/XMC4000/../XMC4000/Endpoint_XMC4000.h **** 	{
 192:/opt/XMClib/XMC_Peripheral_Library_v2.1.16/ThirdPartyLibraries/USBlib/USB/Class/Device/../../Core/XMC4000/../XMC4000/Endpoint_XMC4000.h **** 		USBD_Endpoint_t *ep = &device.Endpoints[device.CurrentEndpoint];
 193:/opt/XMClib/XMC_Peripheral_Library_v2.1.16/ThirdPartyLibraries/USBlib/USB/Class/Device/../../Core/XMC4000/../XMC4000/Endpoint_XMC4000.h **** 		return ep->IsOutRecieved;
 194:/opt/XMClib/XMC_Peripheral_Library_v2.1.16/ThirdPartyLibraries/USBlib/USB/Class/Device/../../Core/XMC4000/../XMC4000/Endpoint_XMC4000.h **** 	}
 195:/opt/XMClib/XMC_Peripheral_Library_v2.1.16/ThirdPartyLibraries/USBlib/USB/Class/Device/../../Core/XMC4000/../XMC4000/Endpoint_XMC4000.h **** 
 196:/opt/XMClib/XMC_Peripheral_Library_v2.1.16/ThirdPartyLibraries/USBlib/USB/Class/Device/../../Core/XMC4000/../XMC4000/Endpoint_XMC4000.h **** 	/** Determines the currently selected endpoint's direction.
 197:/opt/XMClib/XMC_Peripheral_Library_v2.1.16/ThirdPartyLibraries/USBlib/USB/Class/Device/../../Core/XMC4000/../XMC4000/Endpoint_XMC4000.h **** 	 *
 198:/opt/XMClib/XMC_Peripheral_Library_v2.1.16/ThirdPartyLibraries/USBlib/USB/Class/Device/../../Core/XMC4000/../XMC4000/Endpoint_XMC4000.h **** 	 *  \return The currently selected endpoint's direction, as a \c ENDPOINT_DIR_* mask.
 199:/opt/XMClib/XMC_Peripheral_Library_v2.1.16/ThirdPartyLibraries/USBlib/USB/Class/Device/../../Core/XMC4000/../XMC4000/Endpoint_XMC4000.h **** 	 */
 200:/opt/XMClib/XMC_Peripheral_Library_v2.1.16/ThirdPartyLibraries/USBlib/USB/Class/Device/../../Core/XMC4000/../XMC4000/Endpoint_XMC4000.h **** 	static inline uint8_t Endpoint_GetEndpointDirection(void) ATTR_WARN_UNUSED_RESULT ATTR_ALWAYS_INLI
 201:/opt/XMClib/XMC_Peripheral_Library_v2.1.16/ThirdPartyLibraries/USBlib/USB/Class/Device/../../Core/XMC4000/../XMC4000/Endpoint_XMC4000.h **** 	static inline uint8_t Endpoint_GetEndpointDirection(void)
 202:/opt/XMClib/XMC_Peripheral_Library_v2.1.16/ThirdPartyLibraries/USBlib/USB/Class/Device/../../Core/XMC4000/../XMC4000/Endpoint_XMC4000.h **** 	{
 203:/opt/XMClib/XMC_Peripheral_Library_v2.1.16/ThirdPartyLibraries/USBlib/USB/Class/Device/../../Core/XMC4000/../XMC4000/Endpoint_XMC4000.h **** 		USBD_Endpoint_t *ep = &device.Endpoints[device.CurrentEndpoint];
 204:/opt/XMClib/XMC_Peripheral_Library_v2.1.16/ThirdPartyLibraries/USBlib/USB/Class/Device/../../Core/XMC4000/../XMC4000/Endpoint_XMC4000.h **** 		return ep->Address & ENDPOINT_DIR_MASK;
 205:/opt/XMClib/XMC_Peripheral_Library_v2.1.16/ThirdPartyLibraries/USBlib/USB/Class/Device/../../Core/XMC4000/../XMC4000/Endpoint_XMC4000.h **** 	}
 206:/opt/XMClib/XMC_Peripheral_Library_v2.1.16/ThirdPartyLibraries/USBlib/USB/Class/Device/../../Core/XMC4000/../XMC4000/Endpoint_XMC4000.h **** 
 207:/opt/XMClib/XMC_Peripheral_Library_v2.1.16/ThirdPartyLibraries/USBlib/USB/Class/Device/../../Core/XMC4000/../XMC4000/Endpoint_XMC4000.h **** 	/** Indicates the number of bytes currently stored in the current endpoint's selected bank.
 208:/opt/XMClib/XMC_Peripheral_Library_v2.1.16/ThirdPartyLibraries/USBlib/USB/Class/Device/../../Core/XMC4000/../XMC4000/Endpoint_XMC4000.h **** 	 *
 209:/opt/XMClib/XMC_Peripheral_Library_v2.1.16/ThirdPartyLibraries/USBlib/USB/Class/Device/../../Core/XMC4000/../XMC4000/Endpoint_XMC4000.h **** 	 *  \ingroup Group_EndpointRW
 210:/opt/XMClib/XMC_Peripheral_Library_v2.1.16/ThirdPartyLibraries/USBlib/USB/Class/Device/../../Core/XMC4000/../XMC4000/Endpoint_XMC4000.h **** 	 *
 211:/opt/XMClib/XMC_Peripheral_Library_v2.1.16/ThirdPartyLibraries/USBlib/USB/Class/Device/../../Core/XMC4000/../XMC4000/Endpoint_XMC4000.h **** 	 *  \return Total number of bytes in the currently selected Endpoint's FIFO buffer.
 212:/opt/XMClib/XMC_Peripheral_Library_v2.1.16/ThirdPartyLibraries/USBlib/USB/Class/Device/../../Core/XMC4000/../XMC4000/Endpoint_XMC4000.h **** 	 */
 213:/opt/XMClib/XMC_Peripheral_Library_v2.1.16/ThirdPartyLibraries/USBlib/USB/Class/Device/../../Core/XMC4000/../XMC4000/Endpoint_XMC4000.h **** 	static inline uint16_t Endpoint_BytesInEndpoint(void) ATTR_WARN_UNUSED_RESULT ATTR_ALWAYS_INLINE;
 214:/opt/XMClib/XMC_Peripheral_Library_v2.1.16/ThirdPartyLibraries/USBlib/USB/Class/Device/../../Core/XMC4000/../XMC4000/Endpoint_XMC4000.h **** 	static inline uint16_t Endpoint_BytesInEndpoint(void)
 467              		.loc 2 214 25 view .LVU123
 468              	.LBB67:
 215:/opt/XMClib/XMC_Peripheral_Library_v2.1.16/ThirdPartyLibraries/USBlib/USB/Class/Device/../../Core/XMC4000/../XMC4000/Endpoint_XMC4000.h **** 	{
 216:/opt/XMClib/XMC_Peripheral_Library_v2.1.16/ThirdPartyLibraries/USBlib/USB/Class/Device/../../Core/XMC4000/../XMC4000/Endpoint_XMC4000.h **** 		USBD_Endpoint_t *ep = &device.Endpoints[device.CurrentEndpoint];
 469              		.loc 2 216 3 view .LVU124
 217:/opt/XMClib/XMC_Peripheral_Library_v2.1.16/ThirdPartyLibraries/USBlib/USB/Class/Device/../../Core/XMC4000/../XMC4000/Endpoint_XMC4000.h **** 		if (ep->Direction)
 470              		.loc 2 217 3 view .LVU125
 471              		.loc 2 217 7 is_stmt 0 view .LVU126
 472 0022 2C22     		movs	r2, #44
 473 0024 02FB0133 		mla	r3, r2, r1, r3
 474              		.loc 2 217 6 view .LVU127
 475 0028 93F90430 		ldrsb	r3, [r3, #4]
 476 002c 002B     		cmp	r3, #0
 477 002e 08DB     		blt	.L42
 218:/opt/XMClib/XMC_Peripheral_Library_v2.1.16/ThirdPartyLibraries/USBlib/USB/Class/Device/../../Core/XMC4000/../XMC4000/Endpoint_XMC4000.h **** 			return ep->InBytesAvailable;
 219:/opt/XMClib/XMC_Peripheral_Library_v2.1.16/ThirdPartyLibraries/USBlib/USB/Class/Device/../../Core/XMC4000/../XMC4000/Endpoint_XMC4000.h **** 		else
 220:/opt/XMClib/XMC_Peripheral_Library_v2.1.16/ThirdPartyLibraries/USBlib/USB/Class/Device/../../Core/XMC4000/../XMC4000/Endpoint_XMC4000.h **** 			return ep->OutBytesAvailable;
 478              		.loc 2 220 4 is_stmt 1 view .LVU128
 479              		.loc 2 220 13 is_stmt 0 view .LVU129
 480 0030 114B     		ldr	r3, .L45+4
 481 0032 2C22     		movs	r2, #44
 482 0034 02FB0133 		mla	r3, r2, r1, r3
 483 0038 DB68     		ldr	r3, [r3, #12]
 484              	.L36:
 485              	.LBE67:
 486              	.LBE66:
 487              		.loc 1 200 5 discriminator 1 view .LVU130
 488 003a 9BB2     		uxth	r3, r3
 489 003c 33B9     		cbnz	r3, .L43
 201:/opt/XMClib/XMC_Peripheral_Library_v2.1.16/ThirdPartyLibraries/USBlib/USB/Class/Device/CDCClassDevice.c **** 	  return ENDPOINT_READYWAIT_NoError;
 490              		.loc 1 201 11 view .LVU131
 491 003e 0024     		movs	r4, #0
 492 0040 14E0     		b	.L34
 493              	.L42:
 494              	.LBB69:
 495              	.LBB68:
 218:/opt/XMClib/XMC_Peripheral_Library_v2.1.16/ThirdPartyLibraries/USBlib/USB/Class/Device/../../Core/XMC4000/../XMC4000/Endpoint_XMC4000.h **** 			return ep->InBytesAvailable;
 496              		.loc 2 218 4 is_stmt 1 view .LVU132
 218:/opt/XMClib/XMC_Peripheral_Library_v2.1.16/ThirdPartyLibraries/USBlib/USB/Class/Device/../../Core/XMC4000/../XMC4000/Endpoint_XMC4000.h **** 			return ep->InBytesAvailable;
 497              		.loc 2 218 13 is_stmt 0 view .LVU133
 498 0042 0D4B     		ldr	r3, .L45+4
 499 0044 02FB0133 		mla	r3, r2, r1, r3
 500 0048 DB69     		ldr	r3, [r3, #28]
 501 004a F6E7     		b	.L36
 502              	.L43:
 218:/opt/XMClib/XMC_Peripheral_Library_v2.1.16/ThirdPartyLibraries/USBlib/USB/Class/Device/../../Core/XMC4000/../XMC4000/Endpoint_XMC4000.h **** 			return ep->InBytesAvailable;
 503              		.loc 2 218 13 view .LVU134
 504              	.LBE68:
 505              	.LBE69:
 202:/opt/XMClib/XMC_Peripheral_Library_v2.1.16/ThirdPartyLibraries/USBlib/USB/Class/Device/CDCClassDevice.c **** 
 203:/opt/XMClib/XMC_Peripheral_Library_v2.1.16/ThirdPartyLibraries/USBlib/USB/Class/Device/CDCClassDevice.c **** 	bool BankFull = !(Endpoint_IsReadWriteAllowed());
 506              		.loc 1 203 2 is_stmt 1 view .LVU135
 507              		.loc 1 203 20 is_stmt 0 view .LVU136
 508 004c FFF7FEFF 		bl	Endpoint_IsReadWriteAllowed
 509              	.LVL48:
 510              		.loc 1 203 20 view .LVU137
 511 0050 0446     		mov	r4, r0
 512              	.LVL49:
 204:/opt/XMClib/XMC_Peripheral_Library_v2.1.16/ThirdPartyLibraries/USBlib/USB/Class/Device/CDCClassDevice.c **** 
 205:/opt/XMClib/XMC_Peripheral_Library_v2.1.16/ThirdPartyLibraries/USBlib/USB/Class/Device/CDCClassDevice.c **** 	Endpoint_ClearIN();
 513              		.loc 1 205 2 is_stmt 1 view .LVU138
 514 0052 FFF7FEFF 		bl	Endpoint_ClearIN
 515              	.LVL50:
 206:/opt/XMClib/XMC_Peripheral_Library_v2.1.16/ThirdPartyLibraries/USBlib/USB/Class/Device/CDCClassDevice.c **** 
 207:/opt/XMClib/XMC_Peripheral_Library_v2.1.16/ThirdPartyLibraries/USBlib/USB/Class/Device/CDCClassDevice.c **** 	if (BankFull)
 516              		.loc 1 207 2 view .LVU139
 517              		.loc 1 207 5 is_stmt 0 view .LVU140
 518 0056 0CB1     		cbz	r4, .L44
 208:/opt/XMClib/XMC_Peripheral_Library_v2.1.16/ThirdPartyLibraries/USBlib/USB/Class/Device/CDCClassDevice.c **** 	{
 209:/opt/XMClib/XMC_Peripheral_Library_v2.1.16/ThirdPartyLibraries/USBlib/USB/Class/Device/CDCClassDevice.c **** 		if ((ErrorCode = Endpoint_WaitUntilReady()) != ENDPOINT_READYWAIT_NoError)
 210:/opt/XMClib/XMC_Peripheral_Library_v2.1.16/ThirdPartyLibraries/USBlib/USB/Class/Device/CDCClassDevice.c **** 		  return ErrorCode;
 211:/opt/XMClib/XMC_Peripheral_Library_v2.1.16/ThirdPartyLibraries/USBlib/USB/Class/Device/CDCClassDevice.c **** 
 212:/opt/XMClib/XMC_Peripheral_Library_v2.1.16/ThirdPartyLibraries/USBlib/USB/Class/Device/CDCClassDevice.c **** 		Endpoint_ClearIN();
 213:/opt/XMClib/XMC_Peripheral_Library_v2.1.16/ThirdPartyLibraries/USBlib/USB/Class/Device/CDCClassDevice.c **** 	}
 214:/opt/XMClib/XMC_Peripheral_Library_v2.1.16/ThirdPartyLibraries/USBlib/USB/Class/Device/CDCClassDevice.c **** 
 215:/opt/XMClib/XMC_Peripheral_Library_v2.1.16/ThirdPartyLibraries/USBlib/USB/Class/Device/CDCClassDevice.c **** 	return ENDPOINT_READYWAIT_NoError;
 519              		.loc 1 215 9 view .LVU141
 520 0058 0024     		movs	r4, #0
 521              	.LVL51:
 522              		.loc 1 215 9 view .LVU142
 523 005a 07E0     		b	.L34
 524              	.LVL52:
 525              	.L44:
 209:/opt/XMClib/XMC_Peripheral_Library_v2.1.16/ThirdPartyLibraries/USBlib/USB/Class/Device/CDCClassDevice.c **** 		  return ErrorCode;
 526              		.loc 1 209 3 is_stmt 1 view .LVU143
 209:/opt/XMClib/XMC_Peripheral_Library_v2.1.16/ThirdPartyLibraries/USBlib/USB/Class/Device/CDCClassDevice.c **** 		  return ErrorCode;
 527              		.loc 1 209 20 is_stmt 0 view .LVU144
 528 005c FFF7FEFF 		bl	Endpoint_WaitUntilReady
 529              	.LVL53:
 209:/opt/XMClib/XMC_Peripheral_Library_v2.1.16/ThirdPartyLibraries/USBlib/USB/Class/Device/CDCClassDevice.c **** 		  return ErrorCode;
 530              		.loc 1 209 6 discriminator 1 view .LVU145
 531 0060 0446     		mov	r4, r0
 532              	.LVL54:
 209:/opt/XMClib/XMC_Peripheral_Library_v2.1.16/ThirdPartyLibraries/USBlib/USB/Class/Device/CDCClassDevice.c **** 		  return ErrorCode;
 533              		.loc 1 209 6 discriminator 1 view .LVU146
 534 0062 18B9     		cbnz	r0, .L34
 212:/opt/XMClib/XMC_Peripheral_Library_v2.1.16/ThirdPartyLibraries/USBlib/USB/Class/Device/CDCClassDevice.c **** 	}
 535              		.loc 1 212 3 is_stmt 1 view .LVU147
 536 0064 FFF7FEFF 		bl	Endpoint_ClearIN
 537              	.LVL55:
 212:/opt/XMClib/XMC_Peripheral_Library_v2.1.16/ThirdPartyLibraries/USBlib/USB/Class/Device/CDCClassDevice.c **** 	}
 538              		.loc 1 212 3 is_stmt 0 view .LVU148
 539 0068 00E0     		b	.L34
 540              	.LVL56:
 541              	.L37:
 194:/opt/XMClib/XMC_Peripheral_Library_v2.1.16/ThirdPartyLibraries/USBlib/USB/Class/Device/CDCClassDevice.c **** 
 542              		.loc 1 194 11 view .LVU149
 543 006a 0224     		movs	r4, #2
 544              	.LVL57:
 545              	.L34:
 216:/opt/XMClib/XMC_Peripheral_Library_v2.1.16/ThirdPartyLibraries/USBlib/USB/Class/Device/CDCClassDevice.c **** }
 546              		.loc 1 216 1 view .LVU150
 547 006c 2046     		mov	r0, r4
 548 006e 10BD     		pop	{r4, pc}
 549              	.LVL58:
 550              	.L38:
 194:/opt/XMClib/XMC_Peripheral_Library_v2.1.16/ThirdPartyLibraries/USBlib/USB/Class/Device/CDCClassDevice.c **** 
 551              		.loc 1 194 11 view .LVU151
 552 0070 0224     		movs	r4, #2
 553 0072 FBE7     		b	.L34
 554              	.L46:
 555              		.align	2
 556              	.L45:
 557 0074 00000000 		.word	USB_DeviceState
 558 0078 00000000 		.word	device
 559              		.cfi_endproc
 560              	.LFE199:
 562              		.section	.text.CDC_Device_USBTask,"ax",%progbits
 563              		.align	1
 564              		.global	CDC_Device_USBTask
 565              		.syntax unified
 566              		.thumb
 567              		.thumb_func
 569              	CDC_Device_USBTask:
 570              	.LVL59:
 571              	.LFB195:
 136:/opt/XMClib/XMC_Peripheral_Library_v2.1.16/ThirdPartyLibraries/USBlib/USB/Class/Device/CDCClassDevice.c **** 	if ((USB_DeviceState != DEVICE_STATE_Configured) || !(CDCInterfaceInfo->State.LineEncoding.BaudRat
 572              		.loc 1 136 1 is_stmt 1 view -0
 573              		.cfi_startproc
 574              		@ args = 0, pretend = 0, frame = 0
 575              		@ frame_needed = 0, uses_anonymous_args = 0
 136:/opt/XMClib/XMC_Peripheral_Library_v2.1.16/ThirdPartyLibraries/USBlib/USB/Class/Device/CDCClassDevice.c **** 	if ((USB_DeviceState != DEVICE_STATE_Configured) || !(CDCInterfaceInfo->State.LineEncoding.BaudRat
 576              		.loc 1 136 1 is_stmt 0 view .LVU153
 577 0000 08B5     		push	{r3, lr}
 578              	.LCFI9:
 579              		.cfi_def_cfa_offset 8
 580              		.cfi_offset 3, -8
 581              		.cfi_offset 14, -4
 137:/opt/XMClib/XMC_Peripheral_Library_v2.1.16/ThirdPartyLibraries/USBlib/USB/Class/Device/CDCClassDevice.c **** 	  return;
 582              		.loc 1 137 2 is_stmt 1 view .LVU154
 137:/opt/XMClib/XMC_Peripheral_Library_v2.1.16/ThirdPartyLibraries/USBlib/USB/Class/Device/CDCClassDevice.c **** 	  return;
 583              		.loc 1 137 23 is_stmt 0 view .LVU155
 584 0002 104B     		ldr	r3, .L50
 585 0004 1B78     		ldrb	r3, [r3]	@ zero_extendqisi2
 137:/opt/XMClib/XMC_Peripheral_Library_v2.1.16/ThirdPartyLibraries/USBlib/USB/Class/Device/CDCClassDevice.c **** 	  return;
 586              		.loc 1 137 5 view .LVU156
 587 0006 042B     		cmp	r3, #4
 588 0008 1BD1     		bne	.L47
 137:/opt/XMClib/XMC_Peripheral_Library_v2.1.16/ThirdPartyLibraries/USBlib/USB/Class/Device/CDCClassDevice.c **** 	  return;
 589              		.loc 1 137 92 discriminator 1 view .LVU157
 590 000a 8369     		ldr	r3, [r0, #24]	@ unaligned
 137:/opt/XMClib/XMC_Peripheral_Library_v2.1.16/ThirdPartyLibraries/USBlib/USB/Class/Device/CDCClassDevice.c **** 	  return;
 591              		.loc 1 137 51 discriminator 1 view .LVU158
 592 000c CBB1     		cbz	r3, .L47
 141:/opt/XMClib/XMC_Peripheral_Library_v2.1.16/ThirdPartyLibraries/USBlib/USB/Class/Device/CDCClassDevice.c **** 
 593              		.loc 1 141 2 is_stmt 1 view .LVU159
 594 000e 8278     		ldrb	r2, [r0, #2]	@ zero_extendqisi2
 595              	.LVL60:
 596              	.LBB70:
 597              	.LBI70:
 129:/opt/XMClib/XMC_Peripheral_Library_v2.1.16/ThirdPartyLibraries/USBlib/USB/Class/Device/../../Core/XMC4000/../XMC4000/Endpoint_XMC4000.h **** 	{
 598              		.loc 2 129 21 view .LVU160
 599              	.LBB71:
 131:/opt/XMClib/XMC_Peripheral_Library_v2.1.16/ThirdPartyLibraries/USBlib/USB/Class/Device/../../Core/XMC4000/../XMC4000/Endpoint_XMC4000.h **** 		device.CurrentDirection = (Address & ENDPOINT_DIR_MASK);
 600              		.loc 2 131 3 view .LVU161
 131:/opt/XMClib/XMC_Peripheral_Library_v2.1.16/ThirdPartyLibraries/USBlib/USB/Class/Device/../../Core/XMC4000/../XMC4000/Endpoint_XMC4000.h **** 		device.CurrentDirection = (Address & ENDPOINT_DIR_MASK);
 601              		.loc 2 131 36 is_stmt 0 view .LVU162
 602 0010 02F00F01 		and	r1, r2, #15
 131:/opt/XMClib/XMC_Peripheral_Library_v2.1.16/ThirdPartyLibraries/USBlib/USB/Class/Device/../../Core/XMC4000/../XMC4000/Endpoint_XMC4000.h **** 		device.CurrentDirection = (Address & ENDPOINT_DIR_MASK);
 603              		.loc 2 131 26 view .LVU163
 604 0014 0C4B     		ldr	r3, .L50+4
 605 0016 83F83C11 		strb	r1, [r3, #316]
 132:/opt/XMClib/XMC_Peripheral_Library_v2.1.16/ThirdPartyLibraries/USBlib/USB/Class/Device/../../Core/XMC4000/../XMC4000/Endpoint_XMC4000.h **** 	}
 606              		.loc 2 132 3 is_stmt 1 view .LVU164
 132:/opt/XMClib/XMC_Peripheral_Library_v2.1.16/ThirdPartyLibraries/USBlib/USB/Class/Device/../../Core/XMC4000/../XMC4000/Endpoint_XMC4000.h **** 	}
 607              		.loc 2 132 38 is_stmt 0 view .LVU165
 608 001a 22F07F02 		bic	r2, r2, #127
 609              	.LVL61:
 132:/opt/XMClib/XMC_Peripheral_Library_v2.1.16/ThirdPartyLibraries/USBlib/USB/Class/Device/../../Core/XMC4000/../XMC4000/Endpoint_XMC4000.h **** 	}
 610              		.loc 2 132 27 view .LVU166
 611 001e 83F83D21 		strb	r2, [r3, #317]
 612              	.LVL62:
 132:/opt/XMClib/XMC_Peripheral_Library_v2.1.16/ThirdPartyLibraries/USBlib/USB/Class/Device/../../Core/XMC4000/../XMC4000/Endpoint_XMC4000.h **** 	}
 613              		.loc 2 132 27 view .LVU167
 614              	.LBE71:
 615              	.LBE70:
 143:/opt/XMClib/XMC_Peripheral_Library_v2.1.16/ThirdPartyLibraries/USBlib/USB/Class/Device/CDCClassDevice.c **** 	  CDC_Device_Flush(CDCInterfaceInfo);
 616              		.loc 1 143 2 is_stmt 1 view .LVU168
 617              	.LBB72:
 618              	.LBI72:
 177:/opt/XMClib/XMC_Peripheral_Library_v2.1.16/ThirdPartyLibraries/USBlib/USB/Class/Device/../../Core/XMC4000/../XMC4000/Endpoint_XMC4000.h **** 	{
 619              		.loc 2 177 21 view .LVU169
 620              	.LBB73:
 179:/opt/XMClib/XMC_Peripheral_Library_v2.1.16/ThirdPartyLibraries/USBlib/USB/Class/Device/../../Core/XMC4000/../XMC4000/Endpoint_XMC4000.h **** 		return ep->InInUse == 0 && ep->IsEnabled;
 621              		.loc 2 179 3 view .LVU170
 180:/opt/XMClib/XMC_Peripheral_Library_v2.1.16/ThirdPartyLibraries/USBlib/USB/Class/Device/../../Core/XMC4000/../XMC4000/Endpoint_XMC4000.h **** 	}
 622              		.loc 2 180 3 view .LVU171
 180:/opt/XMClib/XMC_Peripheral_Library_v2.1.16/ThirdPartyLibraries/USBlib/USB/Class/Device/../../Core/XMC4000/../XMC4000/Endpoint_XMC4000.h **** 	}
 623              		.loc 2 180 12 is_stmt 0 view .LVU172
 624 0022 2C22     		movs	r2, #44
 625 0024 02FB0133 		mla	r3, r2, r1, r3
 626 0028 9B68     		ldr	r3, [r3, #8]
 180:/opt/XMClib/XMC_Peripheral_Library_v2.1.16/ThirdPartyLibraries/USBlib/USB/Class/Device/../../Core/XMC4000/../XMC4000/Endpoint_XMC4000.h **** 	}
 627              		.loc 2 180 27 view .LVU173
 628 002a 13F0100F 		tst	r3, #16
 629 002e 08D1     		bne	.L47
 180:/opt/XMClib/XMC_Peripheral_Library_v2.1.16/ThirdPartyLibraries/USBlib/USB/Class/Device/../../Core/XMC4000/../XMC4000/Endpoint_XMC4000.h **** 	}
 630              		.loc 2 180 27 discriminator 1 view .LVU174
 631 0030 054B     		ldr	r3, .L50+4
 632 0032 02FB0133 		mla	r3, r2, r1, r3
 633 0036 1B7A     		ldrb	r3, [r3, #8]	@ zero_extendqisi2
 634 0038 13F0020F 		tst	r3, #2
 635 003c 01D0     		beq	.L47
 636              	.LBE73:
 637              	.LBE72:
 144:/opt/XMClib/XMC_Peripheral_Library_v2.1.16/ThirdPartyLibraries/USBlib/USB/Class/Device/CDCClassDevice.c **** 	#endif
 638              		.loc 1 144 4 is_stmt 1 view .LVU175
 639 003e FFF7FEFF 		bl	CDC_Device_Flush
 640              	.LVL63:
 641              	.L47:
 146:/opt/XMClib/XMC_Peripheral_Library_v2.1.16/ThirdPartyLibraries/USBlib/USB/Class/Device/CDCClassDevice.c **** 
 642              		.loc 1 146 1 is_stmt 0 view .LVU176
 643 0042 08BD     		pop	{r3, pc}
 644              	.L51:
 645              		.align	2
 646              	.L50:
 647 0044 00000000 		.word	USB_DeviceState
 648 0048 00000000 		.word	device
 649              		.cfi_endproc
 650              	.LFE195:
 652              		.section	.text.CDC_Device_BytesReceived,"ax",%progbits
 653              		.align	1
 654              		.global	CDC_Device_BytesReceived
 655              		.syntax unified
 656              		.thumb
 657              		.thumb_func
 659              	CDC_Device_BytesReceived:
 660              	.LVL64:
 661              	.LFB200:
 217:/opt/XMClib/XMC_Peripheral_Library_v2.1.16/ThirdPartyLibraries/USBlib/USB/Class/Device/CDCClassDevice.c **** 
 218:/opt/XMClib/XMC_Peripheral_Library_v2.1.16/ThirdPartyLibraries/USBlib/USB/Class/Device/CDCClassDevice.c **** uint16_t CDC_Device_BytesReceived(USB_ClassInfo_CDC_Device_t* const CDCInterfaceInfo)
 219:/opt/XMClib/XMC_Peripheral_Library_v2.1.16/ThirdPartyLibraries/USBlib/USB/Class/Device/CDCClassDevice.c **** {
 662              		.loc 1 219 1 is_stmt 1 view -0
 663              		.cfi_startproc
 664              		@ args = 0, pretend = 0, frame = 0
 665              		@ frame_needed = 0, uses_anonymous_args = 0
 666              		.loc 1 219 1 is_stmt 0 view .LVU178
 667 0000 10B5     		push	{r4, lr}
 668              	.LCFI10:
 669              		.cfi_def_cfa_offset 8
 670              		.cfi_offset 4, -8
 671              		.cfi_offset 14, -4
 220:/opt/XMClib/XMC_Peripheral_Library_v2.1.16/ThirdPartyLibraries/USBlib/USB/Class/Device/CDCClassDevice.c **** 	if ((USB_DeviceState != DEVICE_STATE_Configured) || !(CDCInterfaceInfo->State.LineEncoding.BaudRat
 672              		.loc 1 220 2 is_stmt 1 view .LVU179
 673              		.loc 1 220 23 is_stmt 0 view .LVU180
 674 0002 1A4B     		ldr	r3, .L61
 675 0004 1B78     		ldrb	r3, [r3]	@ zero_extendqisi2
 676              		.loc 1 220 5 view .LVU181
 677 0006 042B     		cmp	r3, #4
 678 0008 28D1     		bne	.L56
 679              		.loc 1 220 92 discriminator 1 view .LVU182
 680 000a 8369     		ldr	r3, [r0, #24]	@ unaligned
 681              		.loc 1 220 51 discriminator 1 view .LVU183
 682 000c 4BB3     		cbz	r3, .L57
 221:/opt/XMClib/XMC_Peripheral_Library_v2.1.16/ThirdPartyLibraries/USBlib/USB/Class/Device/CDCClassDevice.c **** 	  return 0;
 222:/opt/XMClib/XMC_Peripheral_Library_v2.1.16/ThirdPartyLibraries/USBlib/USB/Class/Device/CDCClassDevice.c **** 
 223:/opt/XMClib/XMC_Peripheral_Library_v2.1.16/ThirdPartyLibraries/USBlib/USB/Class/Device/CDCClassDevice.c **** 	Endpoint_SelectEndpoint(CDCInterfaceInfo->Config.DataOUTEndpoint.Address);
 683              		.loc 1 223 2 is_stmt 1 view .LVU184
 684 000e 027A     		ldrb	r2, [r0, #8]	@ zero_extendqisi2
 685              	.LVL65:
 686              	.LBB74:
 687              	.LBI74:
 129:/opt/XMClib/XMC_Peripheral_Library_v2.1.16/ThirdPartyLibraries/USBlib/USB/Class/Device/../../Core/XMC4000/../XMC4000/Endpoint_XMC4000.h **** 	{
 688              		.loc 2 129 21 view .LVU185
 689              	.LBB75:
 131:/opt/XMClib/XMC_Peripheral_Library_v2.1.16/ThirdPartyLibraries/USBlib/USB/Class/Device/../../Core/XMC4000/../XMC4000/Endpoint_XMC4000.h **** 		device.CurrentDirection = (Address & ENDPOINT_DIR_MASK);
 690              		.loc 2 131 3 view .LVU186
 131:/opt/XMClib/XMC_Peripheral_Library_v2.1.16/ThirdPartyLibraries/USBlib/USB/Class/Device/../../Core/XMC4000/../XMC4000/Endpoint_XMC4000.h **** 		device.CurrentDirection = (Address & ENDPOINT_DIR_MASK);
 691              		.loc 2 131 36 is_stmt 0 view .LVU187
 692 0010 02F00F01 		and	r1, r2, #15
 131:/opt/XMClib/XMC_Peripheral_Library_v2.1.16/ThirdPartyLibraries/USBlib/USB/Class/Device/../../Core/XMC4000/../XMC4000/Endpoint_XMC4000.h **** 		device.CurrentDirection = (Address & ENDPOINT_DIR_MASK);
 693              		.loc 2 131 26 view .LVU188
 694 0014 164B     		ldr	r3, .L61+4
 695 0016 83F83C11 		strb	r1, [r3, #316]
 132:/opt/XMClib/XMC_Peripheral_Library_v2.1.16/ThirdPartyLibraries/USBlib/USB/Class/Device/../../Core/XMC4000/../XMC4000/Endpoint_XMC4000.h **** 	}
 696              		.loc 2 132 3 is_stmt 1 view .LVU189
 132:/opt/XMClib/XMC_Peripheral_Library_v2.1.16/ThirdPartyLibraries/USBlib/USB/Class/Device/../../Core/XMC4000/../XMC4000/Endpoint_XMC4000.h **** 	}
 697              		.loc 2 132 38 is_stmt 0 view .LVU190
 698 001a 22F07F02 		bic	r2, r2, #127
 699              	.LVL66:
 132:/opt/XMClib/XMC_Peripheral_Library_v2.1.16/ThirdPartyLibraries/USBlib/USB/Class/Device/../../Core/XMC4000/../XMC4000/Endpoint_XMC4000.h **** 	}
 700              		.loc 2 132 27 view .LVU191
 701 001e 83F83D21 		strb	r2, [r3, #317]
 702              	.LVL67:
 132:/opt/XMClib/XMC_Peripheral_Library_v2.1.16/ThirdPartyLibraries/USBlib/USB/Class/Device/../../Core/XMC4000/../XMC4000/Endpoint_XMC4000.h **** 	}
 703              		.loc 2 132 27 view .LVU192
 704              	.LBE75:
 705              	.LBE74:
 224:/opt/XMClib/XMC_Peripheral_Library_v2.1.16/ThirdPartyLibraries/USBlib/USB/Class/Device/CDCClassDevice.c **** 
 225:/opt/XMClib/XMC_Peripheral_Library_v2.1.16/ThirdPartyLibraries/USBlib/USB/Class/Device/CDCClassDevice.c **** 	if (Endpoint_IsOUTReceived())
 706              		.loc 1 225 2 is_stmt 1 view .LVU193
 707              	.LBB76:
 708              	.LBI76:
 190:/opt/XMClib/XMC_Peripheral_Library_v2.1.16/ThirdPartyLibraries/USBlib/USB/Class/Device/../../Core/XMC4000/../XMC4000/Endpoint_XMC4000.h **** 	{
 709              		.loc 2 190 21 view .LVU194
 710              	.LBB77:
 192:/opt/XMClib/XMC_Peripheral_Library_v2.1.16/ThirdPartyLibraries/USBlib/USB/Class/Device/../../Core/XMC4000/../XMC4000/Endpoint_XMC4000.h **** 		return ep->IsOutRecieved;
 711              		.loc 2 192 3 view .LVU195
 193:/opt/XMClib/XMC_Peripheral_Library_v2.1.16/ThirdPartyLibraries/USBlib/USB/Class/Device/../../Core/XMC4000/../XMC4000/Endpoint_XMC4000.h **** 	}
 712              		.loc 2 193 3 view .LVU196
 193:/opt/XMClib/XMC_Peripheral_Library_v2.1.16/ThirdPartyLibraries/USBlib/USB/Class/Device/../../Core/XMC4000/../XMC4000/Endpoint_XMC4000.h **** 	}
 713              		.loc 2 193 12 is_stmt 0 view .LVU197
 714 0022 2C22     		movs	r2, #44
 715 0024 02FB0133 		mla	r3, r2, r1, r3
 716 0028 9B68     		ldr	r3, [r3, #8]
 717              	.LBE77:
 718              	.LBE76:
 719              		.loc 1 225 5 discriminator 1 view .LVU198
 720 002a 13F0200F 		tst	r3, #32
 721 002e 1AD0     		beq	.L58
 226:/opt/XMClib/XMC_Peripheral_Library_v2.1.16/ThirdPartyLibraries/USBlib/USB/Class/Device/CDCClassDevice.c **** 	{
 227:/opt/XMClib/XMC_Peripheral_Library_v2.1.16/ThirdPartyLibraries/USBlib/USB/Class/Device/CDCClassDevice.c **** 		if (!(Endpoint_BytesInEndpoint()))
 722              		.loc 1 227 3 is_stmt 1 view .LVU199
 723              	.LBB78:
 724              	.LBI78:
 214:/opt/XMClib/XMC_Peripheral_Library_v2.1.16/ThirdPartyLibraries/USBlib/USB/Class/Device/../../Core/XMC4000/../XMC4000/Endpoint_XMC4000.h **** 	{
 725              		.loc 2 214 25 view .LVU200
 726              	.LBB79:
 216:/opt/XMClib/XMC_Peripheral_Library_v2.1.16/ThirdPartyLibraries/USBlib/USB/Class/Device/../../Core/XMC4000/../XMC4000/Endpoint_XMC4000.h **** 		if (ep->Direction)
 727              		.loc 2 216 3 view .LVU201
 728              	.LVL68:
 217:/opt/XMClib/XMC_Peripheral_Library_v2.1.16/ThirdPartyLibraries/USBlib/USB/Class/Device/../../Core/XMC4000/../XMC4000/Endpoint_XMC4000.h **** 			return ep->InBytesAvailable;
 729              		.loc 2 217 3 view .LVU202
 217:/opt/XMClib/XMC_Peripheral_Library_v2.1.16/ThirdPartyLibraries/USBlib/USB/Class/Device/../../Core/XMC4000/../XMC4000/Endpoint_XMC4000.h **** 			return ep->InBytesAvailable;
 730              		.loc 2 217 7 is_stmt 0 view .LVU203
 731 0030 0F4B     		ldr	r3, .L61+4
 732 0032 02FB0133 		mla	r3, r2, r1, r3
 217:/opt/XMClib/XMC_Peripheral_Library_v2.1.16/ThirdPartyLibraries/USBlib/USB/Class/Device/../../Core/XMC4000/../XMC4000/Endpoint_XMC4000.h **** 			return ep->InBytesAvailable;
 733              		.loc 2 217 6 view .LVU204
 734 0036 93F90430 		ldrsb	r3, [r3, #4]
 735 003a 002B     		cmp	r3, #0
 736 003c 09DB     		blt	.L60
 737              		.loc 2 220 4 is_stmt 1 view .LVU205
 738              		.loc 2 220 13 is_stmt 0 view .LVU206
 739 003e 0C4B     		ldr	r3, .L61+4
 740 0040 2C22     		movs	r2, #44
 741 0042 02FB0133 		mla	r3, r2, r1, r3
 742 0046 DC68     		ldr	r4, [r3, #12]
 743              	.L55:
 744 0048 A4B2     		uxth	r4, r4
 745              	.LBE79:
 746              	.LBE78:
 747              		.loc 1 227 6 discriminator 1 view .LVU207
 748 004a 44B9     		cbnz	r4, .L53
 228:/opt/XMClib/XMC_Peripheral_Library_v2.1.16/ThirdPartyLibraries/USBlib/USB/Class/Device/CDCClassDevice.c **** 		{
 229:/opt/XMClib/XMC_Peripheral_Library_v2.1.16/ThirdPartyLibraries/USBlib/USB/Class/Device/CDCClassDevice.c **** 			Endpoint_ClearOUT();
 749              		.loc 1 229 4 is_stmt 1 view .LVU208
 750 004c FFF7FEFF 		bl	Endpoint_ClearOUT
 751              	.LVL69:
 230:/opt/XMClib/XMC_Peripheral_Library_v2.1.16/ThirdPartyLibraries/USBlib/USB/Class/Device/CDCClassDevice.c **** 			return 0;
 752              		.loc 1 230 4 view .LVU209
 753              		.loc 1 230 11 is_stmt 0 view .LVU210
 754 0050 05E0     		b	.L53
 755              	.LVL70:
 756              	.L60:
 757              	.LBB81:
 758              	.LBB80:
 218:/opt/XMClib/XMC_Peripheral_Library_v2.1.16/ThirdPartyLibraries/USBlib/USB/Class/Device/../../Core/XMC4000/../XMC4000/Endpoint_XMC4000.h **** 		else
 759              		.loc 2 218 4 is_stmt 1 view .LVU211
 218:/opt/XMClib/XMC_Peripheral_Library_v2.1.16/ThirdPartyLibraries/USBlib/USB/Class/Device/../../Core/XMC4000/../XMC4000/Endpoint_XMC4000.h **** 		else
 760              		.loc 2 218 13 is_stmt 0 view .LVU212
 761 0052 074B     		ldr	r3, .L61+4
 762 0054 02FB0133 		mla	r3, r2, r1, r3
 763 0058 DC69     		ldr	r4, [r3, #28]
 764 005a F5E7     		b	.L55
 765              	.LVL71:
 766              	.L56:
 218:/opt/XMClib/XMC_Peripheral_Library_v2.1.16/ThirdPartyLibraries/USBlib/USB/Class/Device/../../Core/XMC4000/../XMC4000/Endpoint_XMC4000.h **** 		else
 767              		.loc 2 218 13 view .LVU213
 768              	.LBE80:
 769              	.LBE81:
 221:/opt/XMClib/XMC_Peripheral_Library_v2.1.16/ThirdPartyLibraries/USBlib/USB/Class/Device/CDCClassDevice.c **** 
 770              		.loc 1 221 11 view .LVU214
 771 005c 0024     		movs	r4, #0
 772              	.LVL72:
 773              	.L53:
 231:/opt/XMClib/XMC_Peripheral_Library_v2.1.16/ThirdPartyLibraries/USBlib/USB/Class/Device/CDCClassDevice.c **** 		}
 232:/opt/XMClib/XMC_Peripheral_Library_v2.1.16/ThirdPartyLibraries/USBlib/USB/Class/Device/CDCClassDevice.c **** 		else
 233:/opt/XMClib/XMC_Peripheral_Library_v2.1.16/ThirdPartyLibraries/USBlib/USB/Class/Device/CDCClassDevice.c **** 		{
 234:/opt/XMClib/XMC_Peripheral_Library_v2.1.16/ThirdPartyLibraries/USBlib/USB/Class/Device/CDCClassDevice.c **** 			return Endpoint_BytesInEndpoint();
 235:/opt/XMClib/XMC_Peripheral_Library_v2.1.16/ThirdPartyLibraries/USBlib/USB/Class/Device/CDCClassDevice.c **** 		}
 236:/opt/XMClib/XMC_Peripheral_Library_v2.1.16/ThirdPartyLibraries/USBlib/USB/Class/Device/CDCClassDevice.c **** 	}
 237:/opt/XMClib/XMC_Peripheral_Library_v2.1.16/ThirdPartyLibraries/USBlib/USB/Class/Device/CDCClassDevice.c **** 	else
 238:/opt/XMClib/XMC_Peripheral_Library_v2.1.16/ThirdPartyLibraries/USBlib/USB/Class/Device/CDCClassDevice.c **** 	{
 239:/opt/XMClib/XMC_Peripheral_Library_v2.1.16/ThirdPartyLibraries/USBlib/USB/Class/Device/CDCClassDevice.c **** 		return 0;
 240:/opt/XMClib/XMC_Peripheral_Library_v2.1.16/ThirdPartyLibraries/USBlib/USB/Class/Device/CDCClassDevice.c **** 	}
 241:/opt/XMClib/XMC_Peripheral_Library_v2.1.16/ThirdPartyLibraries/USBlib/USB/Class/Device/CDCClassDevice.c **** }
 774              		.loc 1 241 1 view .LVU215
 775 005e 2046     		mov	r0, r4
 776 0060 10BD     		pop	{r4, pc}
 777              	.LVL73:
 778              	.L57:
 221:/opt/XMClib/XMC_Peripheral_Library_v2.1.16/ThirdPartyLibraries/USBlib/USB/Class/Device/CDCClassDevice.c **** 
 779              		.loc 1 221 11 view .LVU216
 780 0062 0024     		movs	r4, #0
 781 0064 FBE7     		b	.L53
 782              	.LVL74:
 783              	.L58:
 239:/opt/XMClib/XMC_Peripheral_Library_v2.1.16/ThirdPartyLibraries/USBlib/USB/Class/Device/CDCClassDevice.c **** 	}
 784              		.loc 1 239 10 view .LVU217
 785 0066 0024     		movs	r4, #0
 786 0068 F9E7     		b	.L53
 787              	.L62:
 788 006a 00BF     		.align	2
 789              	.L61:
 790 006c 00000000 		.word	USB_DeviceState
 791 0070 00000000 		.word	device
 792              		.cfi_endproc
 793              	.LFE200:
 795              		.section	.text.CDC_Device_ReceiveByte,"ax",%progbits
 796              		.align	1
 797              		.global	CDC_Device_ReceiveByte
 798              		.syntax unified
 799              		.thumb
 800              		.thumb_func
 802              	CDC_Device_ReceiveByte:
 803              	.LVL75:
 804              	.LFB201:
 242:/opt/XMClib/XMC_Peripheral_Library_v2.1.16/ThirdPartyLibraries/USBlib/USB/Class/Device/CDCClassDevice.c **** 
 243:/opt/XMClib/XMC_Peripheral_Library_v2.1.16/ThirdPartyLibraries/USBlib/USB/Class/Device/CDCClassDevice.c **** int16_t CDC_Device_ReceiveByte(USB_ClassInfo_CDC_Device_t* const CDCInterfaceInfo)
 244:/opt/XMClib/XMC_Peripheral_Library_v2.1.16/ThirdPartyLibraries/USBlib/USB/Class/Device/CDCClassDevice.c **** {
 805              		.loc 1 244 1 is_stmt 1 view -0
 806              		.cfi_startproc
 807              		@ args = 0, pretend = 0, frame = 0
 808              		@ frame_needed = 0, uses_anonymous_args = 0
 809              		.loc 1 244 1 is_stmt 0 view .LVU219
 810 0000 10B5     		push	{r4, lr}
 811              	.LCFI11:
 812              		.cfi_def_cfa_offset 8
 813              		.cfi_offset 4, -8
 814              		.cfi_offset 14, -4
 245:/opt/XMClib/XMC_Peripheral_Library_v2.1.16/ThirdPartyLibraries/USBlib/USB/Class/Device/CDCClassDevice.c **** 	if ((USB_DeviceState != DEVICE_STATE_Configured) || !(CDCInterfaceInfo->State.LineEncoding.BaudRat
 815              		.loc 1 245 2 is_stmt 1 view .LVU220
 816              		.loc 1 245 23 is_stmt 0 view .LVU221
 817 0002 2C4B     		ldr	r3, .L77
 818 0004 1B78     		ldrb	r3, [r3]	@ zero_extendqisi2
 819              		.loc 1 245 5 view .LVU222
 820 0006 042B     		cmp	r3, #4
 821 0008 4AD1     		bne	.L70
 822              		.loc 1 245 92 discriminator 1 view .LVU223
 823 000a 8369     		ldr	r3, [r0, #24]	@ unaligned
 824              		.loc 1 245 51 discriminator 1 view .LVU224
 825 000c 002B     		cmp	r3, #0
 826 000e 4AD0     		beq	.L71
 246:/opt/XMClib/XMC_Peripheral_Library_v2.1.16/ThirdPartyLibraries/USBlib/USB/Class/Device/CDCClassDevice.c **** 	  return -1;
 247:/opt/XMClib/XMC_Peripheral_Library_v2.1.16/ThirdPartyLibraries/USBlib/USB/Class/Device/CDCClassDevice.c **** 
 248:/opt/XMClib/XMC_Peripheral_Library_v2.1.16/ThirdPartyLibraries/USBlib/USB/Class/Device/CDCClassDevice.c **** 	int16_t ReceivedByte = -1;
 827              		.loc 1 248 2 is_stmt 1 view .LVU225
 828              	.LVL76:
 249:/opt/XMClib/XMC_Peripheral_Library_v2.1.16/ThirdPartyLibraries/USBlib/USB/Class/Device/CDCClassDevice.c **** 
 250:/opt/XMClib/XMC_Peripheral_Library_v2.1.16/ThirdPartyLibraries/USBlib/USB/Class/Device/CDCClassDevice.c **** 	Endpoint_SelectEndpoint(CDCInterfaceInfo->Config.DataOUTEndpoint.Address);
 829              		.loc 1 250 2 view .LVU226
 830 0010 017A     		ldrb	r1, [r0, #8]	@ zero_extendqisi2
 831              	.LVL77:
 832              	.LBB82:
 833              	.LBI82:
 129:/opt/XMClib/XMC_Peripheral_Library_v2.1.16/ThirdPartyLibraries/USBlib/USB/Class/Device/../../Core/XMC4000/../XMC4000/Endpoint_XMC4000.h **** 	{
 834              		.loc 2 129 21 view .LVU227
 835              	.LBB83:
 131:/opt/XMClib/XMC_Peripheral_Library_v2.1.16/ThirdPartyLibraries/USBlib/USB/Class/Device/../../Core/XMC4000/../XMC4000/Endpoint_XMC4000.h **** 		device.CurrentDirection = (Address & ENDPOINT_DIR_MASK);
 836              		.loc 2 131 3 view .LVU228
 131:/opt/XMClib/XMC_Peripheral_Library_v2.1.16/ThirdPartyLibraries/USBlib/USB/Class/Device/../../Core/XMC4000/../XMC4000/Endpoint_XMC4000.h **** 		device.CurrentDirection = (Address & ENDPOINT_DIR_MASK);
 837              		.loc 2 131 36 is_stmt 0 view .LVU229
 838 0012 01F00F02 		and	r2, r1, #15
 131:/opt/XMClib/XMC_Peripheral_Library_v2.1.16/ThirdPartyLibraries/USBlib/USB/Class/Device/../../Core/XMC4000/../XMC4000/Endpoint_XMC4000.h **** 		device.CurrentDirection = (Address & ENDPOINT_DIR_MASK);
 839              		.loc 2 131 26 view .LVU230
 840 0016 284B     		ldr	r3, .L77+4
 841 0018 83F83C21 		strb	r2, [r3, #316]
 132:/opt/XMClib/XMC_Peripheral_Library_v2.1.16/ThirdPartyLibraries/USBlib/USB/Class/Device/../../Core/XMC4000/../XMC4000/Endpoint_XMC4000.h **** 	}
 842              		.loc 2 132 3 is_stmt 1 view .LVU231
 132:/opt/XMClib/XMC_Peripheral_Library_v2.1.16/ThirdPartyLibraries/USBlib/USB/Class/Device/../../Core/XMC4000/../XMC4000/Endpoint_XMC4000.h **** 	}
 843              		.loc 2 132 38 is_stmt 0 view .LVU232
 844 001c 21F07F01 		bic	r1, r1, #127
 845              	.LVL78:
 132:/opt/XMClib/XMC_Peripheral_Library_v2.1.16/ThirdPartyLibraries/USBlib/USB/Class/Device/../../Core/XMC4000/../XMC4000/Endpoint_XMC4000.h **** 	}
 846              		.loc 2 132 27 view .LVU233
 847 0020 83F83D11 		strb	r1, [r3, #317]
 848              	.LVL79:
 132:/opt/XMClib/XMC_Peripheral_Library_v2.1.16/ThirdPartyLibraries/USBlib/USB/Class/Device/../../Core/XMC4000/../XMC4000/Endpoint_XMC4000.h **** 	}
 849              		.loc 2 132 27 view .LVU234
 850              	.LBE83:
 851              	.LBE82:
 251:/opt/XMClib/XMC_Peripheral_Library_v2.1.16/ThirdPartyLibraries/USBlib/USB/Class/Device/CDCClassDevice.c **** 
 252:/opt/XMClib/XMC_Peripheral_Library_v2.1.16/ThirdPartyLibraries/USBlib/USB/Class/Device/CDCClassDevice.c **** 	if (Endpoint_IsOUTReceived())
 852              		.loc 1 252 2 is_stmt 1 view .LVU235
 853              	.LBB84:
 854              	.LBI84:
 190:/opt/XMClib/XMC_Peripheral_Library_v2.1.16/ThirdPartyLibraries/USBlib/USB/Class/Device/../../Core/XMC4000/../XMC4000/Endpoint_XMC4000.h **** 	{
 855              		.loc 2 190 21 view .LVU236
 856              	.LBB85:
 192:/opt/XMClib/XMC_Peripheral_Library_v2.1.16/ThirdPartyLibraries/USBlib/USB/Class/Device/../../Core/XMC4000/../XMC4000/Endpoint_XMC4000.h **** 		return ep->IsOutRecieved;
 857              		.loc 2 192 3 view .LVU237
 192:/opt/XMClib/XMC_Peripheral_Library_v2.1.16/ThirdPartyLibraries/USBlib/USB/Class/Device/../../Core/XMC4000/../XMC4000/Endpoint_XMC4000.h **** 		return ep->IsOutRecieved;
 858              		.loc 2 192 49 is_stmt 0 view .LVU238
 859 0024 1146     		mov	r1, r2
 860              	.LVL80:
 193:/opt/XMClib/XMC_Peripheral_Library_v2.1.16/ThirdPartyLibraries/USBlib/USB/Class/Device/../../Core/XMC4000/../XMC4000/Endpoint_XMC4000.h **** 	}
 861              		.loc 2 193 3 is_stmt 1 view .LVU239
 193:/opt/XMClib/XMC_Peripheral_Library_v2.1.16/ThirdPartyLibraries/USBlib/USB/Class/Device/../../Core/XMC4000/../XMC4000/Endpoint_XMC4000.h **** 	}
 862              		.loc 2 193 12 is_stmt 0 view .LVU240
 863 0026 2C20     		movs	r0, #44
 864              	.LVL81:
 193:/opt/XMClib/XMC_Peripheral_Library_v2.1.16/ThirdPartyLibraries/USBlib/USB/Class/Device/../../Core/XMC4000/../XMC4000/Endpoint_XMC4000.h **** 	}
 865              		.loc 2 193 12 view .LVU241
 866 0028 00FB0233 		mla	r3, r0, r2, r3
 867 002c 9B68     		ldr	r3, [r3, #8]
 868              	.LBE85:
 869              	.LBE84:
 870              		.loc 1 252 5 discriminator 1 view .LVU242
 871 002e 13F0200F 		tst	r3, #32
 872 0032 3BD0     		beq	.L72
 253:/opt/XMClib/XMC_Peripheral_Library_v2.1.16/ThirdPartyLibraries/USBlib/USB/Class/Device/CDCClassDevice.c **** 	{
 254:/opt/XMClib/XMC_Peripheral_Library_v2.1.16/ThirdPartyLibraries/USBlib/USB/Class/Device/CDCClassDevice.c **** 		if (Endpoint_BytesInEndpoint())
 873              		.loc 1 254 3 is_stmt 1 view .LVU243
 874              	.LBB86:
 875              	.LBI86:
 214:/opt/XMClib/XMC_Peripheral_Library_v2.1.16/ThirdPartyLibraries/USBlib/USB/Class/Device/../../Core/XMC4000/../XMC4000/Endpoint_XMC4000.h **** 	{
 876              		.loc 2 214 25 view .LVU244
 877              	.LBB87:
 216:/opt/XMClib/XMC_Peripheral_Library_v2.1.16/ThirdPartyLibraries/USBlib/USB/Class/Device/../../Core/XMC4000/../XMC4000/Endpoint_XMC4000.h **** 		if (ep->Direction)
 878              		.loc 2 216 3 view .LVU245
 879              	.LVL82:
 217:/opt/XMClib/XMC_Peripheral_Library_v2.1.16/ThirdPartyLibraries/USBlib/USB/Class/Device/../../Core/XMC4000/../XMC4000/Endpoint_XMC4000.h **** 			return ep->InBytesAvailable;
 880              		.loc 2 217 3 view .LVU246
 217:/opt/XMClib/XMC_Peripheral_Library_v2.1.16/ThirdPartyLibraries/USBlib/USB/Class/Device/../../Core/XMC4000/../XMC4000/Endpoint_XMC4000.h **** 			return ep->InBytesAvailable;
 881              		.loc 2 217 7 is_stmt 0 view .LVU247
 882 0034 204B     		ldr	r3, .L77+4
 883 0036 00FB0233 		mla	r3, r0, r2, r3
 217:/opt/XMClib/XMC_Peripheral_Library_v2.1.16/ThirdPartyLibraries/USBlib/USB/Class/Device/../../Core/XMC4000/../XMC4000/Endpoint_XMC4000.h **** 			return ep->InBytesAvailable;
 884              		.loc 2 217 6 view .LVU248
 885 003a 93F90430 		ldrsb	r3, [r3, #4]
 886 003e 002B     		cmp	r3, #0
 887 0040 10DB     		blt	.L75
 888              		.loc 2 220 4 is_stmt 1 view .LVU249
 889              		.loc 2 220 13 is_stmt 0 view .LVU250
 890 0042 1D4B     		ldr	r3, .L77+4
 891 0044 2C20     		movs	r0, #44
 892 0046 00FB0233 		mla	r3, r0, r2, r3
 893              	.LBE87:
 894              	.LBE86:
 895              		.loc 1 254 6 discriminator 1 view .LVU251
 896 004a 9B89     		ldrh	r3, [r3, #12]
 897 004c BBB9     		cbnz	r3, .L66
 248:/opt/XMClib/XMC_Peripheral_Library_v2.1.16/ThirdPartyLibraries/USBlib/USB/Class/Device/CDCClassDevice.c **** 
 898              		.loc 1 248 10 view .LVU252
 899 004e 4FF0FF34 		mov	r4, #-1
 900              	.LVL83:
 901              	.L68:
 902              	.LBB89:
 903              	.LBB90:
 904              		.loc 2 220 4 is_stmt 1 view .LVU253
 905              		.loc 2 220 13 is_stmt 0 view .LVU254
 906 0052 194B     		ldr	r3, .L77+4
 907 0054 2C22     		movs	r2, #44
 908 0056 02FB0133 		mla	r3, r2, r1, r3
 909 005a DB68     		ldr	r3, [r3, #12]
 910              	.LVL84:
 911              	.L69:
 912              		.loc 2 220 13 view .LVU255
 913              	.LBE90:
 914              	.LBE89:
 255:/opt/XMClib/XMC_Peripheral_Library_v2.1.16/ThirdPartyLibraries/USBlib/USB/Class/Device/CDCClassDevice.c **** 		  ReceivedByte = Endpoint_Read_8();
 256:/opt/XMClib/XMC_Peripheral_Library_v2.1.16/ThirdPartyLibraries/USBlib/USB/Class/Device/CDCClassDevice.c **** 
 257:/opt/XMClib/XMC_Peripheral_Library_v2.1.16/ThirdPartyLibraries/USBlib/USB/Class/Device/CDCClassDevice.c **** 		if (!(Endpoint_BytesInEndpoint()))
 915              		.loc 1 257 6 discriminator 1 view .LVU256
 916 005c 9BB2     		uxth	r3, r3
 917 005e E3B1     		cbz	r3, .L76
 918              	.LVL85:
 919              	.L64:
 258:/opt/XMClib/XMC_Peripheral_Library_v2.1.16/ThirdPartyLibraries/USBlib/USB/Class/Device/CDCClassDevice.c **** 		  Endpoint_ClearOUT();
 259:/opt/XMClib/XMC_Peripheral_Library_v2.1.16/ThirdPartyLibraries/USBlib/USB/Class/Device/CDCClassDevice.c **** 	}
 260:/opt/XMClib/XMC_Peripheral_Library_v2.1.16/ThirdPartyLibraries/USBlib/USB/Class/Device/CDCClassDevice.c **** 
 261:/opt/XMClib/XMC_Peripheral_Library_v2.1.16/ThirdPartyLibraries/USBlib/USB/Class/Device/CDCClassDevice.c **** 	return ReceivedByte;
 262:/opt/XMClib/XMC_Peripheral_Library_v2.1.16/ThirdPartyLibraries/USBlib/USB/Class/Device/CDCClassDevice.c **** }
 920              		.loc 1 262 1 view .LVU257
 921 0060 2046     		mov	r0, r4
 922 0062 10BD     		pop	{r4, pc}
 923              	.LVL86:
 924              	.L75:
 925              	.LBB93:
 926              	.LBB88:
 218:/opt/XMClib/XMC_Peripheral_Library_v2.1.16/ThirdPartyLibraries/USBlib/USB/Class/Device/../../Core/XMC4000/../XMC4000/Endpoint_XMC4000.h **** 		else
 927              		.loc 2 218 4 is_stmt 1 view .LVU258
 218:/opt/XMClib/XMC_Peripheral_Library_v2.1.16/ThirdPartyLibraries/USBlib/USB/Class/Device/../../Core/XMC4000/../XMC4000/Endpoint_XMC4000.h **** 		else
 928              		.loc 2 218 13 is_stmt 0 view .LVU259
 929 0064 144B     		ldr	r3, .L77+4
 930 0066 00FB0233 		mla	r3, r0, r2, r3
 931              	.LBE88:
 932              	.LBE93:
 254:/opt/XMClib/XMC_Peripheral_Library_v2.1.16/ThirdPartyLibraries/USBlib/USB/Class/Device/CDCClassDevice.c **** 		  ReceivedByte = Endpoint_Read_8();
 933              		.loc 1 254 6 discriminator 1 view .LVU260
 934 006a 9B8B     		ldrh	r3, [r3, #28]
 935 006c 3BB9     		cbnz	r3, .L66
 248:/opt/XMClib/XMC_Peripheral_Library_v2.1.16/ThirdPartyLibraries/USBlib/USB/Class/Device/CDCClassDevice.c **** 
 936              		.loc 1 248 10 view .LVU261
 937 006e 4FF0FF34 		mov	r4, #-1
 938              	.LVL87:
 939              	.L67:
 940              	.LBB94:
 941              	.LBB91:
 218:/opt/XMClib/XMC_Peripheral_Library_v2.1.16/ThirdPartyLibraries/USBlib/USB/Class/Device/../../Core/XMC4000/../XMC4000/Endpoint_XMC4000.h **** 		else
 942              		.loc 2 218 4 is_stmt 1 view .LVU262
 218:/opt/XMClib/XMC_Peripheral_Library_v2.1.16/ThirdPartyLibraries/USBlib/USB/Class/Device/../../Core/XMC4000/../XMC4000/Endpoint_XMC4000.h **** 		else
 943              		.loc 2 218 13 is_stmt 0 view .LVU263
 944 0072 114B     		ldr	r3, .L77+4
 945 0074 2C22     		movs	r2, #44
 946 0076 02FB0133 		mla	r3, r2, r1, r3
 947 007a DB69     		ldr	r3, [r3, #28]
 948 007c EEE7     		b	.L69
 949              	.LVL88:
 950              	.L66:
 218:/opt/XMClib/XMC_Peripheral_Library_v2.1.16/ThirdPartyLibraries/USBlib/USB/Class/Device/../../Core/XMC4000/../XMC4000/Endpoint_XMC4000.h **** 		else
 951              		.loc 2 218 13 view .LVU264
 952              	.LBE91:
 953              	.LBE94:
 255:/opt/XMClib/XMC_Peripheral_Library_v2.1.16/ThirdPartyLibraries/USBlib/USB/Class/Device/CDCClassDevice.c **** 
 954              		.loc 1 255 5 is_stmt 1 view .LVU265
 255:/opt/XMClib/XMC_Peripheral_Library_v2.1.16/ThirdPartyLibraries/USBlib/USB/Class/Device/CDCClassDevice.c **** 
 955              		.loc 1 255 20 is_stmt 0 view .LVU266
 956 007e FFF7FEFF 		bl	Endpoint_Read_8
 957              	.LVL89:
 255:/opt/XMClib/XMC_Peripheral_Library_v2.1.16/ThirdPartyLibraries/USBlib/USB/Class/Device/CDCClassDevice.c **** 
 958              		.loc 1 255 18 discriminator 1 view .LVU267
 959 0082 04B2     		sxth	r4, r0
 960              	.LVL90:
 257:/opt/XMClib/XMC_Peripheral_Library_v2.1.16/ThirdPartyLibraries/USBlib/USB/Class/Device/CDCClassDevice.c **** 		  Endpoint_ClearOUT();
 961              		.loc 1 257 3 is_stmt 1 view .LVU268
 962              	.LBB95:
 963              	.LBI89:
 214:/opt/XMClib/XMC_Peripheral_Library_v2.1.16/ThirdPartyLibraries/USBlib/USB/Class/Device/../../Core/XMC4000/../XMC4000/Endpoint_XMC4000.h **** 	{
 964              		.loc 2 214 25 view .LVU269
 965              	.LBB92:
 216:/opt/XMClib/XMC_Peripheral_Library_v2.1.16/ThirdPartyLibraries/USBlib/USB/Class/Device/../../Core/XMC4000/../XMC4000/Endpoint_XMC4000.h **** 		if (ep->Direction)
 966              		.loc 2 216 3 view .LVU270
 216:/opt/XMClib/XMC_Peripheral_Library_v2.1.16/ThirdPartyLibraries/USBlib/USB/Class/Device/../../Core/XMC4000/../XMC4000/Endpoint_XMC4000.h **** 		if (ep->Direction)
 967              		.loc 2 216 49 is_stmt 0 view .LVU271
 968 0084 0C4B     		ldr	r3, .L77+4
 969 0086 93F83C11 		ldrb	r1, [r3, #316]	@ zero_extendqisi2
 970              	.LVL91:
 217:/opt/XMClib/XMC_Peripheral_Library_v2.1.16/ThirdPartyLibraries/USBlib/USB/Class/Device/../../Core/XMC4000/../XMC4000/Endpoint_XMC4000.h **** 			return ep->InBytesAvailable;
 971              		.loc 2 217 3 is_stmt 1 view .LVU272
 217:/opt/XMClib/XMC_Peripheral_Library_v2.1.16/ThirdPartyLibraries/USBlib/USB/Class/Device/../../Core/XMC4000/../XMC4000/Endpoint_XMC4000.h **** 			return ep->InBytesAvailable;
 972              		.loc 2 217 7 is_stmt 0 view .LVU273
 973 008a 2C22     		movs	r2, #44
 974 008c 02FB0133 		mla	r3, r2, r1, r3
 217:/opt/XMClib/XMC_Peripheral_Library_v2.1.16/ThirdPartyLibraries/USBlib/USB/Class/Device/../../Core/XMC4000/../XMC4000/Endpoint_XMC4000.h **** 			return ep->InBytesAvailable;
 975              		.loc 2 217 6 view .LVU274
 976 0090 93F90430 		ldrsb	r3, [r3, #4]
 977 0094 002B     		cmp	r3, #0
 978 0096 DCDA     		bge	.L68
 979 0098 EBE7     		b	.L67
 980              	.LVL92:
 981              	.L76:
 217:/opt/XMClib/XMC_Peripheral_Library_v2.1.16/ThirdPartyLibraries/USBlib/USB/Class/Device/../../Core/XMC4000/../XMC4000/Endpoint_XMC4000.h **** 			return ep->InBytesAvailable;
 982              		.loc 2 217 6 view .LVU275
 983              	.LBE92:
 984              	.LBE95:
 258:/opt/XMClib/XMC_Peripheral_Library_v2.1.16/ThirdPartyLibraries/USBlib/USB/Class/Device/CDCClassDevice.c **** 	}
 985              		.loc 1 258 5 is_stmt 1 view .LVU276
 986 009a FFF7FEFF 		bl	Endpoint_ClearOUT
 987              	.LVL93:
 988 009e DFE7     		b	.L64
 989              	.LVL94:
 990              	.L70:
 246:/opt/XMClib/XMC_Peripheral_Library_v2.1.16/ThirdPartyLibraries/USBlib/USB/Class/Device/CDCClassDevice.c **** 
 991              		.loc 1 246 11 is_stmt 0 view .LVU277
 992 00a0 4FF0FF34 		mov	r4, #-1
 993 00a4 DCE7     		b	.L64
 994              	.L71:
 995 00a6 4FF0FF34 		mov	r4, #-1
 996 00aa D9E7     		b	.L64
 997              	.LVL95:
 998              	.L72:
 248:/opt/XMClib/XMC_Peripheral_Library_v2.1.16/ThirdPartyLibraries/USBlib/USB/Class/Device/CDCClassDevice.c **** 
 999              		.loc 1 248 10 view .LVU278
 1000 00ac 4FF0FF34 		mov	r4, #-1
 1001 00b0 D6E7     		b	.L64
 1002              	.L78:
 1003 00b2 00BF     		.align	2
 1004              	.L77:
 1005 00b4 00000000 		.word	USB_DeviceState
 1006 00b8 00000000 		.word	device
 1007              		.cfi_endproc
 1008              	.LFE201:
 1010              		.section	.text.CDC_Device_SendControlLineStateChange,"ax",%progbits
 1011              		.align	1
 1012              		.global	CDC_Device_SendControlLineStateChange
 1013              		.syntax unified
 1014              		.thumb
 1015              		.thumb_func
 1017              	CDC_Device_SendControlLineStateChange:
 1018              	.LVL96:
 1019              	.LFB202:
 263:/opt/XMClib/XMC_Peripheral_Library_v2.1.16/ThirdPartyLibraries/USBlib/USB/Class/Device/CDCClassDevice.c **** 
 264:/opt/XMClib/XMC_Peripheral_Library_v2.1.16/ThirdPartyLibraries/USBlib/USB/Class/Device/CDCClassDevice.c **** void CDC_Device_SendControlLineStateChange(USB_ClassInfo_CDC_Device_t* const CDCInterfaceInfo)
 265:/opt/XMClib/XMC_Peripheral_Library_v2.1.16/ThirdPartyLibraries/USBlib/USB/Class/Device/CDCClassDevice.c **** {
 1020              		.loc 1 265 1 is_stmt 1 view -0
 1021              		.cfi_startproc
 1022              		@ args = 0, pretend = 0, frame = 8
 1023              		@ frame_needed = 0, uses_anonymous_args = 0
 266:/opt/XMClib/XMC_Peripheral_Library_v2.1.16/ThirdPartyLibraries/USBlib/USB/Class/Device/CDCClassDevice.c **** 	if ((USB_DeviceState != DEVICE_STATE_Configured) || !(CDCInterfaceInfo->State.LineEncoding.BaudRat
 1024              		.loc 1 266 2 view .LVU280
 1025              		.loc 1 266 23 is_stmt 0 view .LVU281
 1026 0000 144B     		ldr	r3, .L86
 1027 0002 1B78     		ldrb	r3, [r3]	@ zero_extendqisi2
 1028              		.loc 1 266 5 view .LVU282
 1029 0004 042B     		cmp	r3, #4
 1030 0006 23D1     		bne	.L82
 265:/opt/XMClib/XMC_Peripheral_Library_v2.1.16/ThirdPartyLibraries/USBlib/USB/Class/Device/CDCClassDevice.c **** 	if ((USB_DeviceState != DEVICE_STATE_Configured) || !(CDCInterfaceInfo->State.LineEncoding.BaudRat
 1031              		.loc 1 265 1 view .LVU283
 1032 0008 10B5     		push	{r4, lr}
 1033              	.LCFI12:
 1034              		.cfi_def_cfa_offset 8
 1035              		.cfi_offset 4, -8
 1036              		.cfi_offset 14, -4
 1037 000a 82B0     		sub	sp, sp, #8
 1038              	.LCFI13:
 1039              		.cfi_def_cfa_offset 16
 1040 000c 0446     		mov	r4, r0
 1041              		.loc 1 266 92 discriminator 1 view .LVU284
 1042 000e 8369     		ldr	r3, [r0, #24]	@ unaligned
 1043              		.loc 1 266 51 discriminator 1 view .LVU285
 1044 0010 0BB9     		cbnz	r3, .L85
 1045              	.LVL97:
 1046              	.L79:
 267:/opt/XMClib/XMC_Peripheral_Library_v2.1.16/ThirdPartyLibraries/USBlib/USB/Class/Device/CDCClassDevice.c **** 	  return;
 268:/opt/XMClib/XMC_Peripheral_Library_v2.1.16/ThirdPartyLibraries/USBlib/USB/Class/Device/CDCClassDevice.c **** 
 269:/opt/XMClib/XMC_Peripheral_Library_v2.1.16/ThirdPartyLibraries/USBlib/USB/Class/Device/CDCClassDevice.c **** 	Endpoint_SelectEndpoint(CDCInterfaceInfo->Config.NotificationEndpoint.Address);
 270:/opt/XMClib/XMC_Peripheral_Library_v2.1.16/ThirdPartyLibraries/USBlib/USB/Class/Device/CDCClassDevice.c **** 
 271:/opt/XMClib/XMC_Peripheral_Library_v2.1.16/ThirdPartyLibraries/USBlib/USB/Class/Device/CDCClassDevice.c **** 	USB_Request_Header_t Notification = (USB_Request_Header_t)
 272:/opt/XMClib/XMC_Peripheral_Library_v2.1.16/ThirdPartyLibraries/USBlib/USB/Class/Device/CDCClassDevice.c **** 		{
 273:/opt/XMClib/XMC_Peripheral_Library_v2.1.16/ThirdPartyLibraries/USBlib/USB/Class/Device/CDCClassDevice.c **** 			.bmRequestType = (REQDIR_DEVICETOHOST | REQTYPE_CLASS | REQREC_INTERFACE),
 274:/opt/XMClib/XMC_Peripheral_Library_v2.1.16/ThirdPartyLibraries/USBlib/USB/Class/Device/CDCClassDevice.c **** 			.bRequest      = CDC_NOTIF_SerialState,
 275:/opt/XMClib/XMC_Peripheral_Library_v2.1.16/ThirdPartyLibraries/USBlib/USB/Class/Device/CDCClassDevice.c **** 			.wValue        = CPU_TO_LE16(0),
 276:/opt/XMClib/XMC_Peripheral_Library_v2.1.16/ThirdPartyLibraries/USBlib/USB/Class/Device/CDCClassDevice.c **** 			.wIndex        = CPU_TO_LE16(0),
 277:/opt/XMClib/XMC_Peripheral_Library_v2.1.16/ThirdPartyLibraries/USBlib/USB/Class/Device/CDCClassDevice.c **** 			.wLength       = CPU_TO_LE16(sizeof(CDCInterfaceInfo->State.ControlLineStates.DeviceToHost)),
 278:/opt/XMClib/XMC_Peripheral_Library_v2.1.16/ThirdPartyLibraries/USBlib/USB/Class/Device/CDCClassDevice.c **** 		};
 279:/opt/XMClib/XMC_Peripheral_Library_v2.1.16/ThirdPartyLibraries/USBlib/USB/Class/Device/CDCClassDevice.c **** 
 280:/opt/XMClib/XMC_Peripheral_Library_v2.1.16/ThirdPartyLibraries/USBlib/USB/Class/Device/CDCClassDevice.c **** 	Endpoint_Write_Stream_LE(&Notification, sizeof(USB_Request_Header_t), NULL);
 281:/opt/XMClib/XMC_Peripheral_Library_v2.1.16/ThirdPartyLibraries/USBlib/USB/Class/Device/CDCClassDevice.c **** 	Endpoint_Write_Stream_LE(&CDCInterfaceInfo->State.ControlLineStates.DeviceToHost,
 282:/opt/XMClib/XMC_Peripheral_Library_v2.1.16/ThirdPartyLibraries/USBlib/USB/Class/Device/CDCClassDevice.c **** 	                         sizeof(CDCInterfaceInfo->State.ControlLineStates.DeviceToHost),
 283:/opt/XMClib/XMC_Peripheral_Library_v2.1.16/ThirdPartyLibraries/USBlib/USB/Class/Device/CDCClassDevice.c **** 	                         NULL);
 284:/opt/XMClib/XMC_Peripheral_Library_v2.1.16/ThirdPartyLibraries/USBlib/USB/Class/Device/CDCClassDevice.c **** 	Endpoint_ClearIN();
 285:/opt/XMClib/XMC_Peripheral_Library_v2.1.16/ThirdPartyLibraries/USBlib/USB/Class/Device/CDCClassDevice.c **** }
 1047              		.loc 1 285 1 view .LVU286
 1048 0012 02B0     		add	sp, sp, #8
 1049              	.LCFI14:
 1050              		.cfi_remember_state
 1051              		.cfi_def_cfa_offset 8
 1052              		@ sp needed
 1053 0014 10BD     		pop	{r4, pc}
 1054              	.LVL98:
 1055              	.L85:
 1056              	.LCFI15:
 1057              		.cfi_restore_state
 269:/opt/XMClib/XMC_Peripheral_Library_v2.1.16/ThirdPartyLibraries/USBlib/USB/Class/Device/CDCClassDevice.c **** 
 1058              		.loc 1 269 2 is_stmt 1 view .LVU287
 1059 0016 837B     		ldrb	r3, [r0, #14]	@ zero_extendqisi2
 1060              	.LVL99:
 1061              	.LBB96:
 1062              	.LBI96:
 129:/opt/XMClib/XMC_Peripheral_Library_v2.1.16/ThirdPartyLibraries/USBlib/USB/Class/Device/../../Core/XMC4000/../XMC4000/Endpoint_XMC4000.h **** 	{
 1063              		.loc 2 129 21 view .LVU288
 1064              	.LBB97:
 131:/opt/XMClib/XMC_Peripheral_Library_v2.1.16/ThirdPartyLibraries/USBlib/USB/Class/Device/../../Core/XMC4000/../XMC4000/Endpoint_XMC4000.h **** 		device.CurrentDirection = (Address & ENDPOINT_DIR_MASK);
 1065              		.loc 2 131 3 view .LVU289
 131:/opt/XMClib/XMC_Peripheral_Library_v2.1.16/ThirdPartyLibraries/USBlib/USB/Class/Device/../../Core/XMC4000/../XMC4000/Endpoint_XMC4000.h **** 		device.CurrentDirection = (Address & ENDPOINT_DIR_MASK);
 1066              		.loc 2 131 26 is_stmt 0 view .LVU290
 1067 0018 0F4A     		ldr	r2, .L86+4
 131:/opt/XMClib/XMC_Peripheral_Library_v2.1.16/ThirdPartyLibraries/USBlib/USB/Class/Device/../../Core/XMC4000/../XMC4000/Endpoint_XMC4000.h **** 		device.CurrentDirection = (Address & ENDPOINT_DIR_MASK);
 1068              		.loc 2 131 36 view .LVU291
 1069 001a 03F00F01 		and	r1, r3, #15
 131:/opt/XMClib/XMC_Peripheral_Library_v2.1.16/ThirdPartyLibraries/USBlib/USB/Class/Device/../../Core/XMC4000/../XMC4000/Endpoint_XMC4000.h **** 		device.CurrentDirection = (Address & ENDPOINT_DIR_MASK);
 1070              		.loc 2 131 26 view .LVU292
 1071 001e 82F83C11 		strb	r1, [r2, #316]
 132:/opt/XMClib/XMC_Peripheral_Library_v2.1.16/ThirdPartyLibraries/USBlib/USB/Class/Device/../../Core/XMC4000/../XMC4000/Endpoint_XMC4000.h **** 	}
 1072              		.loc 2 132 3 is_stmt 1 view .LVU293
 132:/opt/XMClib/XMC_Peripheral_Library_v2.1.16/ThirdPartyLibraries/USBlib/USB/Class/Device/../../Core/XMC4000/../XMC4000/Endpoint_XMC4000.h **** 	}
 1073              		.loc 2 132 38 is_stmt 0 view .LVU294
 1074 0022 23F07F03 		bic	r3, r3, #127
 1075              	.LVL100:
 132:/opt/XMClib/XMC_Peripheral_Library_v2.1.16/ThirdPartyLibraries/USBlib/USB/Class/Device/../../Core/XMC4000/../XMC4000/Endpoint_XMC4000.h **** 	}
 1076              		.loc 2 132 27 view .LVU295
 1077 0026 82F83D31 		strb	r3, [r2, #317]
 1078              	.LVL101:
 132:/opt/XMClib/XMC_Peripheral_Library_v2.1.16/ThirdPartyLibraries/USBlib/USB/Class/Device/../../Core/XMC4000/../XMC4000/Endpoint_XMC4000.h **** 	}
 1079              		.loc 2 132 27 view .LVU296
 1080              	.LBE97:
 1081              	.LBE96:
 271:/opt/XMClib/XMC_Peripheral_Library_v2.1.16/ThirdPartyLibraries/USBlib/USB/Class/Device/CDCClassDevice.c **** 		{
 1082              		.loc 1 271 2 is_stmt 1 view .LVU297
 271:/opt/XMClib/XMC_Peripheral_Library_v2.1.16/ThirdPartyLibraries/USBlib/USB/Class/Device/CDCClassDevice.c **** 		{
 1083              		.loc 1 271 23 is_stmt 0 view .LVU298
 1084 002a 0C4A     		ldr	r2, .L86+8
 1085 002c 92E80300 		ldm	r2, {r0, r1}
 1086              	.LVL102:
 271:/opt/XMClib/XMC_Peripheral_Library_v2.1.16/ThirdPartyLibraries/USBlib/USB/Class/Device/CDCClassDevice.c **** 		{
 1087              		.loc 1 271 23 view .LVU299
 1088 0030 CDE90001 		strd	r0, r1, [sp]
 280:/opt/XMClib/XMC_Peripheral_Library_v2.1.16/ThirdPartyLibraries/USBlib/USB/Class/Device/CDCClassDevice.c **** 	Endpoint_Write_Stream_LE(&CDCInterfaceInfo->State.ControlLineStates.DeviceToHost,
 1089              		.loc 1 280 2 is_stmt 1 view .LVU300
 1090 0034 0022     		movs	r2, #0
 1091 0036 0821     		movs	r1, #8
 1092 0038 6846     		mov	r0, sp
 1093 003a FFF7FEFF 		bl	Endpoint_Write_Stream_LE
 1094              	.LVL103:
 281:/opt/XMClib/XMC_Peripheral_Library_v2.1.16/ThirdPartyLibraries/USBlib/USB/Class/Device/CDCClassDevice.c **** 	                         sizeof(CDCInterfaceInfo->State.ControlLineStates.DeviceToHost),
 1095              		.loc 1 281 2 view .LVU301
 1096 003e 0022     		movs	r2, #0
 1097 0040 0221     		movs	r1, #2
 1098 0042 04F11600 		add	r0, r4, #22
 1099 0046 FFF7FEFF 		bl	Endpoint_Write_Stream_LE
 1100              	.LVL104:
 284:/opt/XMClib/XMC_Peripheral_Library_v2.1.16/ThirdPartyLibraries/USBlib/USB/Class/Device/CDCClassDevice.c **** }
 1101              		.loc 1 284 2 view .LVU302
 1102 004a FFF7FEFF 		bl	Endpoint_ClearIN
 1103              	.LVL105:
 1104 004e E0E7     		b	.L79
 1105              	.LVL106:
 1106              	.L82:
 1107              	.LCFI16:
 1108              		.cfi_def_cfa_offset 0
 1109              		.cfi_restore 4
 1110              		.cfi_restore 14
 284:/opt/XMClib/XMC_Peripheral_Library_v2.1.16/ThirdPartyLibraries/USBlib/USB/Class/Device/CDCClassDevice.c **** }
 1111              		.loc 1 284 2 is_stmt 0 view .LVU303
 1112 0050 7047     		bx	lr
 1113              	.L87:
 1114 0052 00BF     		.align	2
 1115              	.L86:
 1116 0054 00000000 		.word	USB_DeviceState
 1117 0058 00000000 		.word	device
 1118 005c 00000000 		.word	.LANCHOR0
 1119              		.cfi_endproc
 1120              	.LFE202:
 1122              		.section	.text.EVENT_CDC_Device_LineEncodingChanged,"ax",%progbits
 1123              		.align	1
 1124              		.weak	EVENT_CDC_Device_LineEncodingChanged
 1125              		.syntax unified
 1126              		.thumb
 1127              		.thumb_func
 1129              	EVENT_CDC_Device_LineEncodingChanged:
 1130              	.LVL107:
 1131              	.LFB203:
 286:/opt/XMClib/XMC_Peripheral_Library_v2.1.16/ThirdPartyLibraries/USBlib/USB/Class/Device/CDCClassDevice.c **** 
 287:/opt/XMClib/XMC_Peripheral_Library_v2.1.16/ThirdPartyLibraries/USBlib/USB/Class/Device/CDCClassDevice.c **** #if defined(FDEV_SETUP_STREAM)
 288:/opt/XMClib/XMC_Peripheral_Library_v2.1.16/ThirdPartyLibraries/USBlib/USB/Class/Device/CDCClassDevice.c **** void CDC_Device_CreateStream(USB_ClassInfo_CDC_Device_t* const CDCInterfaceInfo,
 289:/opt/XMClib/XMC_Peripheral_Library_v2.1.16/ThirdPartyLibraries/USBlib/USB/Class/Device/CDCClassDevice.c ****                              FILE* const Stream)
 290:/opt/XMClib/XMC_Peripheral_Library_v2.1.16/ThirdPartyLibraries/USBlib/USB/Class/Device/CDCClassDevice.c **** {
 291:/opt/XMClib/XMC_Peripheral_Library_v2.1.16/ThirdPartyLibraries/USBlib/USB/Class/Device/CDCClassDevice.c **** 	*Stream = (FILE)FDEV_SETUP_STREAM(CDC_Device_putchar, CDC_Device_getchar, _FDEV_SETUP_RW);
 292:/opt/XMClib/XMC_Peripheral_Library_v2.1.16/ThirdPartyLibraries/USBlib/USB/Class/Device/CDCClassDevice.c **** 	fdev_set_udata(Stream, CDCInterfaceInfo);
 293:/opt/XMClib/XMC_Peripheral_Library_v2.1.16/ThirdPartyLibraries/USBlib/USB/Class/Device/CDCClassDevice.c **** }
 294:/opt/XMClib/XMC_Peripheral_Library_v2.1.16/ThirdPartyLibraries/USBlib/USB/Class/Device/CDCClassDevice.c **** 
 295:/opt/XMClib/XMC_Peripheral_Library_v2.1.16/ThirdPartyLibraries/USBlib/USB/Class/Device/CDCClassDevice.c **** void CDC_Device_CreateBlockingStream(USB_ClassInfo_CDC_Device_t* const CDCInterfaceInfo,
 296:/opt/XMClib/XMC_Peripheral_Library_v2.1.16/ThirdPartyLibraries/USBlib/USB/Class/Device/CDCClassDevice.c ****                                      FILE* const Stream)
 297:/opt/XMClib/XMC_Peripheral_Library_v2.1.16/ThirdPartyLibraries/USBlib/USB/Class/Device/CDCClassDevice.c **** {
 298:/opt/XMClib/XMC_Peripheral_Library_v2.1.16/ThirdPartyLibraries/USBlib/USB/Class/Device/CDCClassDevice.c **** 	*Stream = (FILE)FDEV_SETUP_STREAM(CDC_Device_putchar, CDC_Device_getchar_Blocking, _FDEV_SETUP_RW)
 299:/opt/XMClib/XMC_Peripheral_Library_v2.1.16/ThirdPartyLibraries/USBlib/USB/Class/Device/CDCClassDevice.c **** 	fdev_set_udata(Stream, CDCInterfaceInfo);
 300:/opt/XMClib/XMC_Peripheral_Library_v2.1.16/ThirdPartyLibraries/USBlib/USB/Class/Device/CDCClassDevice.c **** }
 301:/opt/XMClib/XMC_Peripheral_Library_v2.1.16/ThirdPartyLibraries/USBlib/USB/Class/Device/CDCClassDevice.c **** 
 302:/opt/XMClib/XMC_Peripheral_Library_v2.1.16/ThirdPartyLibraries/USBlib/USB/Class/Device/CDCClassDevice.c **** static int CDC_Device_putchar(char c,
 303:/opt/XMClib/XMC_Peripheral_Library_v2.1.16/ThirdPartyLibraries/USBlib/USB/Class/Device/CDCClassDevice.c ****                               FILE* Stream)
 304:/opt/XMClib/XMC_Peripheral_Library_v2.1.16/ThirdPartyLibraries/USBlib/USB/Class/Device/CDCClassDevice.c **** {
 305:/opt/XMClib/XMC_Peripheral_Library_v2.1.16/ThirdPartyLibraries/USBlib/USB/Class/Device/CDCClassDevice.c **** 	return CDC_Device_SendByte((USB_ClassInfo_CDC_Device_t*)fdev_get_udata(Stream), c) ? _FDEV_ERR : 0
 306:/opt/XMClib/XMC_Peripheral_Library_v2.1.16/ThirdPartyLibraries/USBlib/USB/Class/Device/CDCClassDevice.c **** }
 307:/opt/XMClib/XMC_Peripheral_Library_v2.1.16/ThirdPartyLibraries/USBlib/USB/Class/Device/CDCClassDevice.c **** 
 308:/opt/XMClib/XMC_Peripheral_Library_v2.1.16/ThirdPartyLibraries/USBlib/USB/Class/Device/CDCClassDevice.c **** static int CDC_Device_getchar(FILE* Stream)
 309:/opt/XMClib/XMC_Peripheral_Library_v2.1.16/ThirdPartyLibraries/USBlib/USB/Class/Device/CDCClassDevice.c **** {
 310:/opt/XMClib/XMC_Peripheral_Library_v2.1.16/ThirdPartyLibraries/USBlib/USB/Class/Device/CDCClassDevice.c **** 	int16_t ReceivedByte = CDC_Device_ReceiveByte((USB_ClassInfo_CDC_Device_t*)fdev_get_udata(Stream))
 311:/opt/XMClib/XMC_Peripheral_Library_v2.1.16/ThirdPartyLibraries/USBlib/USB/Class/Device/CDCClassDevice.c **** 
 312:/opt/XMClib/XMC_Peripheral_Library_v2.1.16/ThirdPartyLibraries/USBlib/USB/Class/Device/CDCClassDevice.c **** 	if (ReceivedByte < 0)
 313:/opt/XMClib/XMC_Peripheral_Library_v2.1.16/ThirdPartyLibraries/USBlib/USB/Class/Device/CDCClassDevice.c **** 	  return _FDEV_EOF;
 314:/opt/XMClib/XMC_Peripheral_Library_v2.1.16/ThirdPartyLibraries/USBlib/USB/Class/Device/CDCClassDevice.c **** 
 315:/opt/XMClib/XMC_Peripheral_Library_v2.1.16/ThirdPartyLibraries/USBlib/USB/Class/Device/CDCClassDevice.c **** 	return ReceivedByte;
 316:/opt/XMClib/XMC_Peripheral_Library_v2.1.16/ThirdPartyLibraries/USBlib/USB/Class/Device/CDCClassDevice.c **** }
 317:/opt/XMClib/XMC_Peripheral_Library_v2.1.16/ThirdPartyLibraries/USBlib/USB/Class/Device/CDCClassDevice.c **** 
 318:/opt/XMClib/XMC_Peripheral_Library_v2.1.16/ThirdPartyLibraries/USBlib/USB/Class/Device/CDCClassDevice.c **** static int CDC_Device_getchar_Blocking(FILE* Stream)
 319:/opt/XMClib/XMC_Peripheral_Library_v2.1.16/ThirdPartyLibraries/USBlib/USB/Class/Device/CDCClassDevice.c **** {
 320:/opt/XMClib/XMC_Peripheral_Library_v2.1.16/ThirdPartyLibraries/USBlib/USB/Class/Device/CDCClassDevice.c **** 	int16_t ReceivedByte;
 321:/opt/XMClib/XMC_Peripheral_Library_v2.1.16/ThirdPartyLibraries/USBlib/USB/Class/Device/CDCClassDevice.c **** 
 322:/opt/XMClib/XMC_Peripheral_Library_v2.1.16/ThirdPartyLibraries/USBlib/USB/Class/Device/CDCClassDevice.c **** 	while ((ReceivedByte = CDC_Device_ReceiveByte((USB_ClassInfo_CDC_Device_t*)fdev_get_udata(Stream))
 323:/opt/XMClib/XMC_Peripheral_Library_v2.1.16/ThirdPartyLibraries/USBlib/USB/Class/Device/CDCClassDevice.c **** 	{
 324:/opt/XMClib/XMC_Peripheral_Library_v2.1.16/ThirdPartyLibraries/USBlib/USB/Class/Device/CDCClassDevice.c **** 		if (USB_DeviceState == DEVICE_STATE_Unattached)
 325:/opt/XMClib/XMC_Peripheral_Library_v2.1.16/ThirdPartyLibraries/USBlib/USB/Class/Device/CDCClassDevice.c **** 		  return _FDEV_EOF;
 326:/opt/XMClib/XMC_Peripheral_Library_v2.1.16/ThirdPartyLibraries/USBlib/USB/Class/Device/CDCClassDevice.c **** 
 327:/opt/XMClib/XMC_Peripheral_Library_v2.1.16/ThirdPartyLibraries/USBlib/USB/Class/Device/CDCClassDevice.c **** 		CDC_Device_USBTask((USB_ClassInfo_CDC_Device_t*)fdev_get_udata(Stream));
 328:/opt/XMClib/XMC_Peripheral_Library_v2.1.16/ThirdPartyLibraries/USBlib/USB/Class/Device/CDCClassDevice.c **** 		USB_USBTask();
 329:/opt/XMClib/XMC_Peripheral_Library_v2.1.16/ThirdPartyLibraries/USBlib/USB/Class/Device/CDCClassDevice.c **** 	}
 330:/opt/XMClib/XMC_Peripheral_Library_v2.1.16/ThirdPartyLibraries/USBlib/USB/Class/Device/CDCClassDevice.c **** 
 331:/opt/XMClib/XMC_Peripheral_Library_v2.1.16/ThirdPartyLibraries/USBlib/USB/Class/Device/CDCClassDevice.c **** 	return ReceivedByte;
 332:/opt/XMClib/XMC_Peripheral_Library_v2.1.16/ThirdPartyLibraries/USBlib/USB/Class/Device/CDCClassDevice.c **** }
 333:/opt/XMClib/XMC_Peripheral_Library_v2.1.16/ThirdPartyLibraries/USBlib/USB/Class/Device/CDCClassDevice.c **** #endif
 334:/opt/XMClib/XMC_Peripheral_Library_v2.1.16/ThirdPartyLibraries/USBlib/USB/Class/Device/CDCClassDevice.c **** 
 335:/opt/XMClib/XMC_Peripheral_Library_v2.1.16/ThirdPartyLibraries/USBlib/USB/Class/Device/CDCClassDevice.c **** __WEAK void EVENT_CDC_Device_LineEncodingChanged(USB_ClassInfo_CDC_Device_t* const CDCInterfaceInfo
 336:/opt/XMClib/XMC_Peripheral_Library_v2.1.16/ThirdPartyLibraries/USBlib/USB/Class/Device/CDCClassDevice.c **** {
 1132              		.loc 1 336 1 is_stmt 1 view -0
 1133              		.cfi_startproc
 1134              		@ args = 0, pretend = 0, frame = 0
 1135              		@ frame_needed = 0, uses_anonymous_args = 0
 1136              		@ link register save eliminated.
 337:/opt/XMClib/XMC_Peripheral_Library_v2.1.16/ThirdPartyLibraries/USBlib/USB/Class/Device/CDCClassDevice.c **** }
 1137              		.loc 1 337 1 view .LVU305
 1138 0000 7047     		bx	lr
 1139              		.cfi_endproc
 1140              	.LFE203:
 1142              		.section	.text.EVENT_CDC_Device_ControLineStateChanged,"ax",%progbits
 1143              		.align	1
 1144              		.weak	EVENT_CDC_Device_ControLineStateChanged
 1145              		.syntax unified
 1146              		.thumb
 1147              		.thumb_func
 1149              	EVENT_CDC_Device_ControLineStateChanged:
 1150              	.LVL108:
 1151              	.LFB204:
 338:/opt/XMClib/XMC_Peripheral_Library_v2.1.16/ThirdPartyLibraries/USBlib/USB/Class/Device/CDCClassDevice.c **** 
 339:/opt/XMClib/XMC_Peripheral_Library_v2.1.16/ThirdPartyLibraries/USBlib/USB/Class/Device/CDCClassDevice.c **** __WEAK void EVENT_CDC_Device_ControLineStateChanged(USB_ClassInfo_CDC_Device_t* const CDCInterfaceI
 340:/opt/XMClib/XMC_Peripheral_Library_v2.1.16/ThirdPartyLibraries/USBlib/USB/Class/Device/CDCClassDevice.c **** {
 1152              		.loc 1 340 1 view -0
 1153              		.cfi_startproc
 1154              		@ args = 0, pretend = 0, frame = 0
 1155              		@ frame_needed = 0, uses_anonymous_args = 0
 1156              		@ link register save eliminated.
 341:/opt/XMClib/XMC_Peripheral_Library_v2.1.16/ThirdPartyLibraries/USBlib/USB/Class/Device/CDCClassDevice.c **** }
 1157              		.loc 1 341 1 view .LVU307
 1158 0000 7047     		bx	lr
 1159              		.cfi_endproc
 1160              	.LFE204:
 1162              		.section	.text.EVENT_CDC_Device_BreakSent,"ax",%progbits
 1163              		.align	1
 1164              		.weak	EVENT_CDC_Device_BreakSent
 1165              		.syntax unified
 1166              		.thumb
 1167              		.thumb_func
 1169              	EVENT_CDC_Device_BreakSent:
 1170              	.LVL109:
 1171              	.LFB205:
 342:/opt/XMClib/XMC_Peripheral_Library_v2.1.16/ThirdPartyLibraries/USBlib/USB/Class/Device/CDCClassDevice.c **** 
 343:/opt/XMClib/XMC_Peripheral_Library_v2.1.16/ThirdPartyLibraries/USBlib/USB/Class/Device/CDCClassDevice.c **** __WEAK void EVENT_CDC_Device_BreakSent(USB_ClassInfo_CDC_Device_t* const CDCInterfaceInfo,
 344:/opt/XMClib/XMC_Peripheral_Library_v2.1.16/ThirdPartyLibraries/USBlib/USB/Class/Device/CDCClassDevice.c **** 				                               const uint8_t Duration)
 345:/opt/XMClib/XMC_Peripheral_Library_v2.1.16/ThirdPartyLibraries/USBlib/USB/Class/Device/CDCClassDevice.c **** {
 1172              		.loc 1 345 1 view -0
 1173              		.cfi_startproc
 1174              		@ args = 0, pretend = 0, frame = 0
 1175              		@ frame_needed = 0, uses_anonymous_args = 0
 1176              		@ link register save eliminated.
 346:/opt/XMClib/XMC_Peripheral_Library_v2.1.16/ThirdPartyLibraries/USBlib/USB/Class/Device/CDCClassDevice.c **** }
 1177              		.loc 1 346 1 view .LVU309
 1178 0000 7047     		bx	lr
 1179              		.cfi_endproc
 1180              	.LFE205:
 1182              		.section	.text.CDC_Device_ProcessControlRequest,"ax",%progbits
 1183              		.align	1
 1184              		.global	CDC_Device_ProcessControlRequest
 1185              		.syntax unified
 1186              		.thumb
 1187              		.thumb_func
 1189              	CDC_Device_ProcessControlRequest:
 1190              	.LVL110:
 1191              	.LFB193:
  41:/opt/XMClib/XMC_Peripheral_Library_v2.1.16/ThirdPartyLibraries/USBlib/USB/Class/Device/CDCClassDevice.c **** 	if (!(Endpoint_IsSETUPReceived()))
 1192              		.loc 1 41 1 view -0
 1193              		.cfi_startproc
 1194              		@ args = 0, pretend = 0, frame = 0
 1195              		@ frame_needed = 0, uses_anonymous_args = 0
  42:/opt/XMClib/XMC_Peripheral_Library_v2.1.16/ThirdPartyLibraries/USBlib/USB/Class/Device/CDCClassDevice.c **** 	  return;
 1196              		.loc 1 42 2 view .LVU311
 1197              	.LBB98:
 1198              	.LBI98:
 142:/opt/XMClib/XMC_Peripheral_Library_v2.1.16/ThirdPartyLibraries/USBlib/USB/Class/Device/../../Core/XMC4000/../XMC4000/Endpoint_XMC4000.h **** 	{
 1199              		.loc 2 142 21 view .LVU312
 1200              	.LBB99:
 144:/opt/XMClib/XMC_Peripheral_Library_v2.1.16/ThirdPartyLibraries/USBlib/USB/Class/Device/../../Core/XMC4000/../XMC4000/Endpoint_XMC4000.h **** 	}
 1201              		.loc 2 144 3 view .LVU313
 144:/opt/XMClib/XMC_Peripheral_Library_v2.1.16/ThirdPartyLibraries/USBlib/USB/Class/Device/../../Core/XMC4000/../XMC4000/Endpoint_XMC4000.h **** 	}
 1202              		.loc 2 144 16 is_stmt 0 view .LVU314
 1203 0000 474B     		ldr	r3, .L111
 1204 0002 93F83E31 		ldrb	r3, [r3, #318]	@ zero_extendqisi2
 1205              	.LBE99:
 1206              	.LBE98:
  42:/opt/XMClib/XMC_Peripheral_Library_v2.1.16/ThirdPartyLibraries/USBlib/USB/Class/Device/CDCClassDevice.c **** 	  return;
 1207              		.loc 1 42 5 discriminator 1 view .LVU315
 1208 0006 13F0020F 		tst	r3, #2
 1209 000a 00F08880 		beq	.L106
  41:/opt/XMClib/XMC_Peripheral_Library_v2.1.16/ThirdPartyLibraries/USBlib/USB/Class/Device/CDCClassDevice.c **** 	if (!(Endpoint_IsSETUPReceived()))
 1210              		.loc 1 41 1 view .LVU316
 1211 000e 10B5     		push	{r4, lr}
 1212              	.LCFI17:
 1213              		.cfi_def_cfa_offset 8
 1214              		.cfi_offset 4, -8
 1215              		.cfi_offset 14, -4
 1216 0010 0446     		mov	r4, r0
  45:/opt/XMClib/XMC_Peripheral_Library_v2.1.16/ThirdPartyLibraries/USBlib/USB/Class/Device/CDCClassDevice.c **** 	  return;
 1217              		.loc 1 45 2 is_stmt 1 view .LVU317
  45:/opt/XMClib/XMC_Peripheral_Library_v2.1.16/ThirdPartyLibraries/USBlib/USB/Class/Device/CDCClassDevice.c **** 	  return;
 1218              		.loc 1 45 5 is_stmt 0 view .LVU318
 1219 0012 444B     		ldr	r3, .L111+4
 1220 0014 9A88     		ldrh	r2, [r3, #4]	@ unaligned
 1221 0016 0378     		ldrb	r3, [r0]	@ zero_extendqisi2
 1222 0018 9A42     		cmp	r2, r3
 1223 001a 5ED1     		bne	.L91
  48:/opt/XMClib/XMC_Peripheral_Library_v2.1.16/ThirdPartyLibraries/USBlib/USB/Class/Device/CDCClassDevice.c **** 	{
 1224              		.loc 1 48 2 is_stmt 1 view .LVU319
  48:/opt/XMClib/XMC_Peripheral_Library_v2.1.16/ThirdPartyLibraries/USBlib/USB/Class/Device/CDCClassDevice.c **** 	{
 1225              		.loc 1 48 28 is_stmt 0 view .LVU320
 1226 001c 414B     		ldr	r3, .L111+4
  48:/opt/XMClib/XMC_Peripheral_Library_v2.1.16/ThirdPartyLibraries/USBlib/USB/Class/Device/CDCClassDevice.c **** 	{
 1227              		.loc 1 48 2 view .LVU321
 1228 001e 5B78     		ldrb	r3, [r3, #1]	@ zero_extendqisi2
 1229 0020 203B     		subs	r3, r3, #32
 1230 0022 032B     		cmp	r3, #3
 1231 0024 59D8     		bhi	.L91
 1232 0026 DFE803F0 		tbb	[pc, r3]
 1233              	.L94:
 1234 002a 29       		.byte	(.L97-.L94)/2
 1235 002b 02       		.byte	(.L96-.L94)/2
 1236 002c 54       		.byte	(.L95-.L94)/2
 1237 002d 69       		.byte	(.L93-.L94)/2
 1238              		.p2align 1
 1239              	.L96:
  51:/opt/XMClib/XMC_Peripheral_Library_v2.1.16/ThirdPartyLibraries/USBlib/USB/Class/Device/CDCClassDevice.c **** 			{
 1240              		.loc 1 51 4 is_stmt 1 view .LVU322
  51:/opt/XMClib/XMC_Peripheral_Library_v2.1.16/ThirdPartyLibraries/USBlib/USB/Class/Device/CDCClassDevice.c **** 			{
 1241              		.loc 1 51 26 is_stmt 0 view .LVU323
 1242 002e 3D4B     		ldr	r3, .L111+4
  51:/opt/XMClib/XMC_Peripheral_Library_v2.1.16/ThirdPartyLibraries/USBlib/USB/Class/Device/CDCClassDevice.c **** 			{
 1243              		.loc 1 51 7 view .LVU324
 1244 0030 1B78     		ldrb	r3, [r3]	@ zero_extendqisi2
 1245 0032 A12B     		cmp	r3, #161
 1246 0034 51D1     		bne	.L91
  53:/opt/XMClib/XMC_Peripheral_Library_v2.1.16/ThirdPartyLibraries/USBlib/USB/Class/Device/CDCClassDevice.c **** 
 1247              		.loc 1 53 5 is_stmt 1 view .LVU325
 1248              	.LBB100:
 1249              	.LBI100:
 156:/opt/XMClib/XMC_Peripheral_Library_v2.1.16/ThirdPartyLibraries/USBlib/USB/Class/Device/../../Core/XMC4000/../XMC4000/Endpoint_XMC4000.h **** 	{
 1250              		.loc 2 156 21 view .LVU326
 1251              	.LBB101:
 158:/opt/XMClib/XMC_Peripheral_Library_v2.1.16/ThirdPartyLibraries/USBlib/USB/Class/Device/../../Core/XMC4000/../XMC4000/Endpoint_XMC4000.h **** 	}
 1252              		.loc 2 158 3 view .LVU327
 158:/opt/XMClib/XMC_Peripheral_Library_v2.1.16/ThirdPartyLibraries/USBlib/USB/Class/Device/../../Core/XMC4000/../XMC4000/Endpoint_XMC4000.h **** 	}
 1253              		.loc 2 158 26 is_stmt 0 view .LVU328
 1254 0036 3A4A     		ldr	r2, .L111
 1255 0038 92F83E31 		ldrb	r3, [r2, #318]	@ zero_extendqisi2
 1256 003c 23F00203 		bic	r3, r3, #2
 1257 0040 82F83E31 		strb	r3, [r2, #318]
 1258              	.LBE101:
 1259              	.LBE100:
  55:/opt/XMClib/XMC_Peripheral_Library_v2.1.16/ThirdPartyLibraries/USBlib/USB/Class/Device/CDCClassDevice.c **** 
 1260              		.loc 1 55 5 is_stmt 1 view .LVU329
 1261              	.LBB102:
 1262              	.LBB103:
 179:/opt/XMClib/XMC_Peripheral_Library_v2.1.16/ThirdPartyLibraries/USBlib/USB/Class/Device/../../Core/XMC4000/../XMC4000/Endpoint_XMC4000.h **** 		return ep->InInUse == 0 && ep->IsEnabled;
 1263              		.loc 2 179 49 is_stmt 0 view .LVU330
 1264 0044 92F83C31 		ldrb	r3, [r2, #316]	@ zero_extendqisi2
 180:/opt/XMClib/XMC_Peripheral_Library_v2.1.16/ThirdPartyLibraries/USBlib/USB/Class/Device/../../Core/XMC4000/../XMC4000/Endpoint_XMC4000.h **** 	}
 1265              		.loc 2 180 12 view .LVU331
 1266 0048 2C21     		movs	r1, #44
 1267 004a 01FB0322 		mla	r2, r1, r3, r2
 1268              	.L98:
 1269              	.LBE103:
 1270              	.LBE102:
  55:/opt/XMClib/XMC_Peripheral_Library_v2.1.16/ThirdPartyLibraries/USBlib/USB/Class/Device/CDCClassDevice.c **** 
 1271              		.loc 1 55 12 is_stmt 1 discriminator 1 view .LVU332
 1272              	.LBB105:
 1273              	.LBI102:
 177:/opt/XMClib/XMC_Peripheral_Library_v2.1.16/ThirdPartyLibraries/USBlib/USB/Class/Device/../../Core/XMC4000/../XMC4000/Endpoint_XMC4000.h **** 	{
 1274              		.loc 2 177 21 view .LVU333
 1275              	.LBB104:
 179:/opt/XMClib/XMC_Peripheral_Library_v2.1.16/ThirdPartyLibraries/USBlib/USB/Class/Device/../../Core/XMC4000/../XMC4000/Endpoint_XMC4000.h **** 		return ep->InInUse == 0 && ep->IsEnabled;
 1276              		.loc 2 179 3 view .LVU334
 1277              	.LVL111:
 180:/opt/XMClib/XMC_Peripheral_Library_v2.1.16/ThirdPartyLibraries/USBlib/USB/Class/Device/../../Core/XMC4000/../XMC4000/Endpoint_XMC4000.h **** 	}
 1278              		.loc 2 180 3 view .LVU335
 180:/opt/XMClib/XMC_Peripheral_Library_v2.1.16/ThirdPartyLibraries/USBlib/USB/Class/Device/../../Core/XMC4000/../XMC4000/Endpoint_XMC4000.h **** 	}
 1279              		.loc 2 180 12 is_stmt 0 view .LVU336
 1280 004e 9368     		ldr	r3, [r2, #8]
 180:/opt/XMClib/XMC_Peripheral_Library_v2.1.16/ThirdPartyLibraries/USBlib/USB/Class/Device/../../Core/XMC4000/../XMC4000/Endpoint_XMC4000.h **** 	}
 1281              		.loc 2 180 27 view .LVU337
 1282 0050 13F0100F 		tst	r3, #16
 1283 0054 FBD1     		bne	.L98
 180:/opt/XMClib/XMC_Peripheral_Library_v2.1.16/ThirdPartyLibraries/USBlib/USB/Class/Device/../../Core/XMC4000/../XMC4000/Endpoint_XMC4000.h **** 	}
 1284              		.loc 2 180 27 discriminator 1 view .LVU338
 1285 0056 137A     		ldrb	r3, [r2, #8]	@ zero_extendqisi2
 1286              	.LBE104:
 1287              	.LBE105:
  55:/opt/XMClib/XMC_Peripheral_Library_v2.1.16/ThirdPartyLibraries/USBlib/USB/Class/Device/CDCClassDevice.c **** 
 1288              		.loc 1 55 12 discriminator 1 view .LVU339
 1289 0058 13F0020F 		tst	r3, #2
 1290 005c F7D0     		beq	.L98
  57:/opt/XMClib/XMC_Peripheral_Library_v2.1.16/ThirdPartyLibraries/USBlib/USB/Class/Device/CDCClassDevice.c **** 				Endpoint_Write_8(CDCInterfaceInfo->State.LineEncoding.CharFormat);
 1291              		.loc 1 57 5 is_stmt 1 view .LVU340
 1292 005e A069     		ldr	r0, [r4, #24]	@ unaligned
 1293              	.LVL112:
  57:/opt/XMClib/XMC_Peripheral_Library_v2.1.16/ThirdPartyLibraries/USBlib/USB/Class/Device/CDCClassDevice.c **** 				Endpoint_Write_8(CDCInterfaceInfo->State.LineEncoding.CharFormat);
 1294              		.loc 1 57 5 is_stmt 0 view .LVU341
 1295 0060 FFF7FEFF 		bl	Endpoint_Write_32_LE
 1296              	.LVL113:
  58:/opt/XMClib/XMC_Peripheral_Library_v2.1.16/ThirdPartyLibraries/USBlib/USB/Class/Device/CDCClassDevice.c **** 				Endpoint_Write_8(CDCInterfaceInfo->State.LineEncoding.ParityType);
 1297              		.loc 1 58 5 is_stmt 1 view .LVU342
 1298 0064 207F     		ldrb	r0, [r4, #28]	@ zero_extendqisi2
 1299 0066 FFF7FEFF 		bl	Endpoint_Write_8
 1300              	.LVL114:
  59:/opt/XMClib/XMC_Peripheral_Library_v2.1.16/ThirdPartyLibraries/USBlib/USB/Class/Device/CDCClassDevice.c **** 				Endpoint_Write_8(CDCInterfaceInfo->State.LineEncoding.DataBits);
 1301              		.loc 1 59 5 view .LVU343
 1302 006a 607F     		ldrb	r0, [r4, #29]	@ zero_extendqisi2
 1303 006c FFF7FEFF 		bl	Endpoint_Write_8
 1304              	.LVL115:
  60:/opt/XMClib/XMC_Peripheral_Library_v2.1.16/ThirdPartyLibraries/USBlib/USB/Class/Device/CDCClassDevice.c **** 
 1305              		.loc 1 60 5 view .LVU344
 1306 0070 A07F     		ldrb	r0, [r4, #30]	@ zero_extendqisi2
 1307 0072 FFF7FEFF 		bl	Endpoint_Write_8
 1308              	.LVL116:
  62:/opt/XMClib/XMC_Peripheral_Library_v2.1.16/ThirdPartyLibraries/USBlib/USB/Class/Device/CDCClassDevice.c **** 				Endpoint_ClearStatusStage();
 1309              		.loc 1 62 5 view .LVU345
 1310 0076 FFF7FEFF 		bl	Endpoint_ClearIN
 1311              	.LVL117:
  63:/opt/XMClib/XMC_Peripheral_Library_v2.1.16/ThirdPartyLibraries/USBlib/USB/Class/Device/CDCClassDevice.c **** 			}
 1312              		.loc 1 63 5 view .LVU346
 1313              	.LBB106:
 1314              	.LBI106:
 165:/opt/XMClib/XMC_Peripheral_Library_v2.1.16/ThirdPartyLibraries/USBlib/USB/Class/Device/../../Core/XMC4000/../XMC4000/Endpoint_XMC4000.h **** 	{
 1315              		.loc 2 165 21 view .LVU347
 1316              	.LBB107:
 168:/opt/XMClib/XMC_Peripheral_Library_v2.1.16/ThirdPartyLibraries/USBlib/USB/Class/Device/../../Core/XMC4000/../XMC4000/Endpoint_XMC4000.h **** 
 1317              		.loc 2 168 2 view .LVU348
 1318 007a 2EE0     		b	.L91
 1319              	.LVL118:
 1320              	.L97:
 168:/opt/XMClib/XMC_Peripheral_Library_v2.1.16/ThirdPartyLibraries/USBlib/USB/Class/Device/../../Core/XMC4000/../XMC4000/Endpoint_XMC4000.h **** 
 1321              		.loc 2 168 2 is_stmt 0 view .LVU349
 1322              	.LBE107:
 1323              	.LBE106:
  68:/opt/XMClib/XMC_Peripheral_Library_v2.1.16/ThirdPartyLibraries/USBlib/USB/Class/Device/CDCClassDevice.c **** 			{
 1324              		.loc 1 68 4 is_stmt 1 view .LVU350
  68:/opt/XMClib/XMC_Peripheral_Library_v2.1.16/ThirdPartyLibraries/USBlib/USB/Class/Device/CDCClassDevice.c **** 			{
 1325              		.loc 1 68 26 is_stmt 0 view .LVU351
 1326 007c 294B     		ldr	r3, .L111+4
  68:/opt/XMClib/XMC_Peripheral_Library_v2.1.16/ThirdPartyLibraries/USBlib/USB/Class/Device/CDCClassDevice.c **** 			{
 1327              		.loc 1 68 7 view .LVU352
 1328 007e 1B78     		ldrb	r3, [r3]	@ zero_extendqisi2
 1329 0080 212B     		cmp	r3, #33
 1330 0082 2AD1     		bne	.L91
  70:/opt/XMClib/XMC_Peripheral_Library_v2.1.16/ThirdPartyLibraries/USBlib/USB/Class/Device/CDCClassDevice.c **** 
 1331              		.loc 1 70 5 is_stmt 1 view .LVU353
 1332              	.LBB108:
 1333              	.LBI108:
 156:/opt/XMClib/XMC_Peripheral_Library_v2.1.16/ThirdPartyLibraries/USBlib/USB/Class/Device/../../Core/XMC4000/../XMC4000/Endpoint_XMC4000.h **** 	{
 1334              		.loc 2 156 21 view .LVU354
 1335              	.LBB109:
 158:/opt/XMClib/XMC_Peripheral_Library_v2.1.16/ThirdPartyLibraries/USBlib/USB/Class/Device/../../Core/XMC4000/../XMC4000/Endpoint_XMC4000.h **** 	}
 1336              		.loc 2 158 3 view .LVU355
 158:/opt/XMClib/XMC_Peripheral_Library_v2.1.16/ThirdPartyLibraries/USBlib/USB/Class/Device/../../Core/XMC4000/../XMC4000/Endpoint_XMC4000.h **** 	}
 1337              		.loc 2 158 26 is_stmt 0 view .LVU356
 1338 0084 264A     		ldr	r2, .L111
 1339 0086 92F83E31 		ldrb	r3, [r2, #318]	@ zero_extendqisi2
 1340 008a 23F00203 		bic	r3, r3, #2
 1341 008e 82F83E31 		strb	r3, [r2, #318]
 1342              	.LBE109:
 1343              	.LBE108:
  72:/opt/XMClib/XMC_Peripheral_Library_v2.1.16/ThirdPartyLibraries/USBlib/USB/Class/Device/CDCClassDevice.c **** 				{
 1344              		.loc 1 72 5 is_stmt 1 view .LVU357
 1345              	.LBB110:
 1346              	.LBB111:
 192:/opt/XMClib/XMC_Peripheral_Library_v2.1.16/ThirdPartyLibraries/USBlib/USB/Class/Device/../../Core/XMC4000/../XMC4000/Endpoint_XMC4000.h **** 		return ep->IsOutRecieved;
 1347              		.loc 2 192 49 is_stmt 0 view .LVU358
 1348 0092 92F83C31 		ldrb	r3, [r2, #316]	@ zero_extendqisi2
 193:/opt/XMClib/XMC_Peripheral_Library_v2.1.16/ThirdPartyLibraries/USBlib/USB/Class/Device/../../Core/XMC4000/../XMC4000/Endpoint_XMC4000.h **** 	}
 1349              		.loc 2 193 12 view .LVU359
 1350 0096 2C21     		movs	r1, #44
 1351 0098 01FB0322 		mla	r2, r1, r3, r2
 1352              	.LBE111:
 1353              	.LBE110:
  74:/opt/XMClib/XMC_Peripheral_Library_v2.1.16/ThirdPartyLibraries/USBlib/USB/Class/Device/CDCClassDevice.c **** 					  return;
 1354              		.loc 1 74 26 view .LVU360
 1355 009c 2249     		ldr	r1, .L111+8
 1356              	.L100:
  72:/opt/XMClib/XMC_Peripheral_Library_v2.1.16/ThirdPartyLibraries/USBlib/USB/Class/Device/CDCClassDevice.c **** 				{
 1357              		.loc 1 72 12 is_stmt 1 view .LVU361
 1358              	.LBB113:
 1359              	.LBI110:
 190:/opt/XMClib/XMC_Peripheral_Library_v2.1.16/ThirdPartyLibraries/USBlib/USB/Class/Device/../../Core/XMC4000/../XMC4000/Endpoint_XMC4000.h **** 	{
 1360              		.loc 2 190 21 view .LVU362
 1361              	.LBB112:
 192:/opt/XMClib/XMC_Peripheral_Library_v2.1.16/ThirdPartyLibraries/USBlib/USB/Class/Device/../../Core/XMC4000/../XMC4000/Endpoint_XMC4000.h **** 		return ep->IsOutRecieved;
 1362              		.loc 2 192 3 view .LVU363
 1363              	.LVL119:
 193:/opt/XMClib/XMC_Peripheral_Library_v2.1.16/ThirdPartyLibraries/USBlib/USB/Class/Device/../../Core/XMC4000/../XMC4000/Endpoint_XMC4000.h **** 	}
 1364              		.loc 2 193 3 view .LVU364
 193:/opt/XMClib/XMC_Peripheral_Library_v2.1.16/ThirdPartyLibraries/USBlib/USB/Class/Device/../../Core/XMC4000/../XMC4000/Endpoint_XMC4000.h **** 	}
 1365              		.loc 2 193 12 is_stmt 0 view .LVU365
 1366 009e 9368     		ldr	r3, [r2, #8]
 1367              	.LBE112:
 1368              	.LBE113:
  72:/opt/XMClib/XMC_Peripheral_Library_v2.1.16/ThirdPartyLibraries/USBlib/USB/Class/Device/CDCClassDevice.c **** 				{
 1369              		.loc 1 72 12 discriminator 1 view .LVU366
 1370 00a0 13F0200F 		tst	r3, #32
 1371 00a4 03D1     		bne	.L109
  74:/opt/XMClib/XMC_Peripheral_Library_v2.1.16/ThirdPartyLibraries/USBlib/USB/Class/Device/CDCClassDevice.c **** 					  return;
 1372              		.loc 1 74 6 is_stmt 1 view .LVU367
  74:/opt/XMClib/XMC_Peripheral_Library_v2.1.16/ThirdPartyLibraries/USBlib/USB/Class/Device/CDCClassDevice.c **** 					  return;
 1373              		.loc 1 74 26 is_stmt 0 view .LVU368
 1374 00a6 0B78     		ldrb	r3, [r1]	@ zero_extendqisi2
  74:/opt/XMClib/XMC_Peripheral_Library_v2.1.16/ThirdPartyLibraries/USBlib/USB/Class/Device/CDCClassDevice.c **** 					  return;
 1375              		.loc 1 74 9 view .LVU369
 1376 00a8 002B     		cmp	r3, #0
 1377 00aa F8D1     		bne	.L100
 1378 00ac 15E0     		b	.L91
 1379              	.L109:
  78:/opt/XMClib/XMC_Peripheral_Library_v2.1.16/ThirdPartyLibraries/USBlib/USB/Class/Device/CDCClassDevice.c **** 				CDCInterfaceInfo->State.LineEncoding.CharFormat  = Endpoint_Read_8();
 1380              		.loc 1 78 5 is_stmt 1 view .LVU370
  78:/opt/XMClib/XMC_Peripheral_Library_v2.1.16/ThirdPartyLibraries/USBlib/USB/Class/Device/CDCClassDevice.c **** 				CDCInterfaceInfo->State.LineEncoding.CharFormat  = Endpoint_Read_8();
 1381              		.loc 1 78 56 is_stmt 0 view .LVU371
 1382 00ae FFF7FEFF 		bl	Endpoint_Read_32_LE
 1383              	.LVL120:
  78:/opt/XMClib/XMC_Peripheral_Library_v2.1.16/ThirdPartyLibraries/USBlib/USB/Class/Device/CDCClassDevice.c **** 				CDCInterfaceInfo->State.LineEncoding.CharFormat  = Endpoint_Read_8();
 1384              		.loc 1 78 54 discriminator 1 view .LVU372
 1385 00b2 A061     		str	r0, [r4, #24]	@ unaligned
  79:/opt/XMClib/XMC_Peripheral_Library_v2.1.16/ThirdPartyLibraries/USBlib/USB/Class/Device/CDCClassDevice.c **** 				CDCInterfaceInfo->State.LineEncoding.ParityType  = Endpoint_Read_8();
 1386              		.loc 1 79 5 is_stmt 1 view .LVU373
  79:/opt/XMClib/XMC_Peripheral_Library_v2.1.16/ThirdPartyLibraries/USBlib/USB/Class/Device/CDCClassDevice.c **** 				CDCInterfaceInfo->State.LineEncoding.ParityType  = Endpoint_Read_8();
 1387              		.loc 1 79 56 is_stmt 0 view .LVU374
 1388 00b4 FFF7FEFF 		bl	Endpoint_Read_8
 1389              	.LVL121:
  79:/opt/XMClib/XMC_Peripheral_Library_v2.1.16/ThirdPartyLibraries/USBlib/USB/Class/Device/CDCClassDevice.c **** 				CDCInterfaceInfo->State.LineEncoding.ParityType  = Endpoint_Read_8();
 1390              		.loc 1 79 54 discriminator 1 view .LVU375
 1391 00b8 2077     		strb	r0, [r4, #28]
  80:/opt/XMClib/XMC_Peripheral_Library_v2.1.16/ThirdPartyLibraries/USBlib/USB/Class/Device/CDCClassDevice.c **** 				CDCInterfaceInfo->State.LineEncoding.DataBits    = Endpoint_Read_8();
 1392              		.loc 1 80 5 is_stmt 1 view .LVU376
  80:/opt/XMClib/XMC_Peripheral_Library_v2.1.16/ThirdPartyLibraries/USBlib/USB/Class/Device/CDCClassDevice.c **** 				CDCInterfaceInfo->State.LineEncoding.DataBits    = Endpoint_Read_8();
 1393              		.loc 1 80 56 is_stmt 0 view .LVU377
 1394 00ba FFF7FEFF 		bl	Endpoint_Read_8
 1395              	.LVL122:
  80:/opt/XMClib/XMC_Peripheral_Library_v2.1.16/ThirdPartyLibraries/USBlib/USB/Class/Device/CDCClassDevice.c **** 				CDCInterfaceInfo->State.LineEncoding.DataBits    = Endpoint_Read_8();
 1396              		.loc 1 80 54 discriminator 1 view .LVU378
 1397 00be 6077     		strb	r0, [r4, #29]
  81:/opt/XMClib/XMC_Peripheral_Library_v2.1.16/ThirdPartyLibraries/USBlib/USB/Class/Device/CDCClassDevice.c **** 
 1398              		.loc 1 81 5 is_stmt 1 view .LVU379
  81:/opt/XMClib/XMC_Peripheral_Library_v2.1.16/ThirdPartyLibraries/USBlib/USB/Class/Device/CDCClassDevice.c **** 
 1399              		.loc 1 81 56 is_stmt 0 view .LVU380
 1400 00c0 FFF7FEFF 		bl	Endpoint_Read_8
 1401              	.LVL123:
  81:/opt/XMClib/XMC_Peripheral_Library_v2.1.16/ThirdPartyLibraries/USBlib/USB/Class/Device/CDCClassDevice.c **** 
 1402              		.loc 1 81 54 discriminator 1 view .LVU381
 1403 00c4 A077     		strb	r0, [r4, #30]
  83:/opt/XMClib/XMC_Peripheral_Library_v2.1.16/ThirdPartyLibraries/USBlib/USB/Class/Device/CDCClassDevice.c **** 				Endpoint_ClearStatusStage();
 1404              		.loc 1 83 5 is_stmt 1 view .LVU382
 1405 00c6 FFF7FEFF 		bl	Endpoint_ClearOUT
 1406              	.LVL124:
  84:/opt/XMClib/XMC_Peripheral_Library_v2.1.16/ThirdPartyLibraries/USBlib/USB/Class/Device/CDCClassDevice.c **** 
 1407              		.loc 1 84 5 view .LVU383
  86:/opt/XMClib/XMC_Peripheral_Library_v2.1.16/ThirdPartyLibraries/USBlib/USB/Class/Device/CDCClassDevice.c **** 			}
 1408              		.loc 1 86 5 view .LVU384
 1409 00ca 2046     		mov	r0, r4
 1410 00cc FFF7FEFF 		bl	EVENT_CDC_Device_LineEncodingChanged
 1411              	.LVL125:
 1412 00d0 03E0     		b	.L91
 1413              	.LVL126:
 1414              	.L95:
  91:/opt/XMClib/XMC_Peripheral_Library_v2.1.16/ThirdPartyLibraries/USBlib/USB/Class/Device/CDCClassDevice.c **** 			{
 1415              		.loc 1 91 4 view .LVU385
  91:/opt/XMClib/XMC_Peripheral_Library_v2.1.16/ThirdPartyLibraries/USBlib/USB/Class/Device/CDCClassDevice.c **** 			{
 1416              		.loc 1 91 26 is_stmt 0 view .LVU386
 1417 00d2 144B     		ldr	r3, .L111+4
  91:/opt/XMClib/XMC_Peripheral_Library_v2.1.16/ThirdPartyLibraries/USBlib/USB/Class/Device/CDCClassDevice.c **** 			{
 1418              		.loc 1 91 7 view .LVU387
 1419 00d4 1B78     		ldrb	r3, [r3]	@ zero_extendqisi2
 1420 00d6 212B     		cmp	r3, #33
 1421 00d8 00D0     		beq	.L110
 1422              	.LVL127:
 1423              	.L91:
 113:/opt/XMClib/XMC_Peripheral_Library_v2.1.16/ThirdPartyLibraries/USBlib/USB/Class/Device/CDCClassDevice.c **** 
 1424              		.loc 1 113 1 view .LVU388
 1425 00da 10BD     		pop	{r4, pc}
 1426              	.LVL128:
 1427              	.L110:
  93:/opt/XMClib/XMC_Peripheral_Library_v2.1.16/ThirdPartyLibraries/USBlib/USB/Class/Device/CDCClassDevice.c **** 				Endpoint_ClearStatusStage();
 1428              		.loc 1 93 5 is_stmt 1 view .LVU389
 1429              	.LBB114:
 1430              	.LBI114:
 156:/opt/XMClib/XMC_Peripheral_Library_v2.1.16/ThirdPartyLibraries/USBlib/USB/Class/Device/../../Core/XMC4000/../XMC4000/Endpoint_XMC4000.h **** 	{
 1431              		.loc 2 156 21 view .LVU390
 1432              	.LBB115:
 158:/opt/XMClib/XMC_Peripheral_Library_v2.1.16/ThirdPartyLibraries/USBlib/USB/Class/Device/../../Core/XMC4000/../XMC4000/Endpoint_XMC4000.h **** 	}
 1433              		.loc 2 158 3 view .LVU391
 158:/opt/XMClib/XMC_Peripheral_Library_v2.1.16/ThirdPartyLibraries/USBlib/USB/Class/Device/../../Core/XMC4000/../XMC4000/Endpoint_XMC4000.h **** 	}
 1434              		.loc 2 158 26 is_stmt 0 view .LVU392
 1435 00dc 104A     		ldr	r2, .L111
 1436 00de 92F83E31 		ldrb	r3, [r2, #318]	@ zero_extendqisi2
 1437 00e2 23F00203 		bic	r3, r3, #2
 1438 00e6 82F83E31 		strb	r3, [r2, #318]
 1439              	.LBE115:
 1440              	.LBE114:
  94:/opt/XMClib/XMC_Peripheral_Library_v2.1.16/ThirdPartyLibraries/USBlib/USB/Class/Device/CDCClassDevice.c **** 
 1441              		.loc 1 94 5 is_stmt 1 view .LVU393
  96:/opt/XMClib/XMC_Peripheral_Library_v2.1.16/ThirdPartyLibraries/USBlib/USB/Class/Device/CDCClassDevice.c **** 
 1442              		.loc 1 96 5 view .LVU394
  96:/opt/XMClib/XMC_Peripheral_Library_v2.1.16/ThirdPartyLibraries/USBlib/USB/Class/Device/CDCClassDevice.c **** 
 1443              		.loc 1 96 80 is_stmt 0 view .LVU395
 1444 00ea 0E4A     		ldr	r2, .L111+4
 1445 00ec 9378     		ldrb	r3, [r2, #2]	@ zero_extendqisi2
 1446 00ee D278     		ldrb	r2, [r2, #3]	@ zero_extendqisi2
 1447 00f0 43EA0223 		orr	r3, r3, r2, lsl #8
  96:/opt/XMClib/XMC_Peripheral_Library_v2.1.16/ThirdPartyLibraries/USBlib/USB/Class/Device/CDCClassDevice.c **** 
 1448              		.loc 1 96 60 view .LVU396
 1449 00f4 8382     		strh	r3, [r0, #20]	@ movhi
  98:/opt/XMClib/XMC_Peripheral_Library_v2.1.16/ThirdPartyLibraries/USBlib/USB/Class/Device/CDCClassDevice.c **** 			}
 1450              		.loc 1 98 5 is_stmt 1 view .LVU397
 1451 00f6 FFF7FEFF 		bl	EVENT_CDC_Device_ControLineStateChanged
 1452              	.LVL129:
  98:/opt/XMClib/XMC_Peripheral_Library_v2.1.16/ThirdPartyLibraries/USBlib/USB/Class/Device/CDCClassDevice.c **** 			}
 1453              		.loc 1 98 5 is_stmt 0 view .LVU398
 1454 00fa EEE7     		b	.L91
 1455              	.LVL130:
 1456              	.L93:
 103:/opt/XMClib/XMC_Peripheral_Library_v2.1.16/ThirdPartyLibraries/USBlib/USB/Class/Device/CDCClassDevice.c **** 			{
 1457              		.loc 1 103 4 is_stmt 1 view .LVU399
 103:/opt/XMClib/XMC_Peripheral_Library_v2.1.16/ThirdPartyLibraries/USBlib/USB/Class/Device/CDCClassDevice.c **** 			{
 1458              		.loc 1 103 26 is_stmt 0 view .LVU400
 1459 00fc 094B     		ldr	r3, .L111+4
 103:/opt/XMClib/XMC_Peripheral_Library_v2.1.16/ThirdPartyLibraries/USBlib/USB/Class/Device/CDCClassDevice.c **** 			{
 1460              		.loc 1 103 7 view .LVU401
 1461 00fe 1B78     		ldrb	r3, [r3]	@ zero_extendqisi2
 1462 0100 212B     		cmp	r3, #33
 1463 0102 EAD1     		bne	.L91
 105:/opt/XMClib/XMC_Peripheral_Library_v2.1.16/ThirdPartyLibraries/USBlib/USB/Class/Device/CDCClassDevice.c **** 				Endpoint_ClearStatusStage();
 1464              		.loc 1 105 5 is_stmt 1 view .LVU402
 1465              	.LBB116:
 1466              	.LBI116:
 156:/opt/XMClib/XMC_Peripheral_Library_v2.1.16/ThirdPartyLibraries/USBlib/USB/Class/Device/../../Core/XMC4000/../XMC4000/Endpoint_XMC4000.h **** 	{
 1467              		.loc 2 156 21 view .LVU403
 1468              	.LBB117:
 158:/opt/XMClib/XMC_Peripheral_Library_v2.1.16/ThirdPartyLibraries/USBlib/USB/Class/Device/../../Core/XMC4000/../XMC4000/Endpoint_XMC4000.h **** 	}
 1469              		.loc 2 158 3 view .LVU404
 158:/opt/XMClib/XMC_Peripheral_Library_v2.1.16/ThirdPartyLibraries/USBlib/USB/Class/Device/../../Core/XMC4000/../XMC4000/Endpoint_XMC4000.h **** 	}
 1470              		.loc 2 158 26 is_stmt 0 view .LVU405
 1471 0104 064A     		ldr	r2, .L111
 1472 0106 92F83E31 		ldrb	r3, [r2, #318]	@ zero_extendqisi2
 1473 010a 23F00203 		bic	r3, r3, #2
 1474 010e 82F83E31 		strb	r3, [r2, #318]
 1475              	.LBE117:
 1476              	.LBE116:
 106:/opt/XMClib/XMC_Peripheral_Library_v2.1.16/ThirdPartyLibraries/USBlib/USB/Class/Device/CDCClassDevice.c **** 
 1477              		.loc 1 106 5 is_stmt 1 view .LVU406
 108:/opt/XMClib/XMC_Peripheral_Library_v2.1.16/ThirdPartyLibraries/USBlib/USB/Class/Device/CDCClassDevice.c **** 			}
 1478              		.loc 1 108 5 view .LVU407
 108:/opt/XMClib/XMC_Peripheral_Library_v2.1.16/ThirdPartyLibraries/USBlib/USB/Class/Device/CDCClassDevice.c **** 			}
 1479              		.loc 1 108 77 is_stmt 0 view .LVU408
 1480 0112 044B     		ldr	r3, .L111+4
 1481 0114 5988     		ldrh	r1, [r3, #2]	@ unaligned
 108:/opt/XMClib/XMC_Peripheral_Library_v2.1.16/ThirdPartyLibraries/USBlib/USB/Class/Device/CDCClassDevice.c **** 			}
 1482              		.loc 1 108 5 view .LVU409
 1483 0116 C9B2     		uxtb	r1, r1
 1484 0118 FFF7FEFF 		bl	EVENT_CDC_Device_BreakSent
 1485              	.LVL131:
 108:/opt/XMClib/XMC_Peripheral_Library_v2.1.16/ThirdPartyLibraries/USBlib/USB/Class/Device/CDCClassDevice.c **** 			}
 1486              		.loc 1 108 5 view .LVU410
 1487 011c DDE7     		b	.L91
 1488              	.LVL132:
 1489              	.L106:
 1490              	.LCFI18:
 1491              		.cfi_def_cfa_offset 0
 1492              		.cfi_restore 4
 1493              		.cfi_restore 14
 108:/opt/XMClib/XMC_Peripheral_Library_v2.1.16/ThirdPartyLibraries/USBlib/USB/Class/Device/CDCClassDevice.c **** 			}
 1494              		.loc 1 108 5 view .LVU411
 1495 011e 7047     		bx	lr
 1496              	.L112:
 1497              		.align	2
 1498              	.L111:
 1499 0120 00000000 		.word	device
 1500 0124 00000000 		.word	USB_ControlRequest
 1501 0128 00000000 		.word	USB_DeviceState
 1502              		.cfi_endproc
 1503              	.LFE193:
 1505              		.section	.rodata
 1506              		.align	2
 1507              		.set	.LANCHOR0,. + 0
 1508              	.LC0:
 1509 0000 A1       		.byte	-95
 1510 0001 20       		.byte	32
 1511 0002 0000     		.short	0
 1512 0004 0000     		.short	0
 1513 0006 0200     		.short	2
 1514              		.text
 1515              	.Letext0:
 1516              		.file 3 "/usr/arm-none-eabi/include/machine/_default_types.h"
 1517              		.file 4 "/usr/arm-none-eabi/include/sys/_stdint.h"
 1518              		.file 5 "/usr/lib/gcc/arm-none-eabi/14.2.0/include/stddef.h"
 1519              		.file 6 "/opt/XMClib/XMC_Peripheral_Library_v2.1.16/CMSIS/Infineon/XMC4500_series/Include/XMC4500.
 1520              		.file 7 "/opt/XMClib/XMC_Peripheral_Library_v2.1.16/XMCLib/inc/xmc_usbd.h"
 1521              		.file 8 "/opt/XMClib/XMC_Peripheral_Library_v2.1.16/ThirdPartyLibraries/USBlib/USB/Class/Device/..
 1522              		.file 9 "/opt/XMClib/XMC_Peripheral_Library_v2.1.16/ThirdPartyLibraries/USBlib/USB/Class/Device/..
 1523              		.file 10 "/opt/XMClib/XMC_Peripheral_Library_v2.1.16/ThirdPartyLibraries/USBlib/USB/Class/Device/.
 1524              		.file 11 "/opt/XMClib/XMC_Peripheral_Library_v2.1.16/ThirdPartyLibraries/USBlib/USB/Class/Device/.
 1525              		.file 12 "/opt/XMClib/XMC_Peripheral_Library_v2.1.16/ThirdPartyLibraries/USBlib/USB/Class/Device/.
 1526              		.file 13 "/opt/XMClib/XMC_Peripheral_Library_v2.1.16/ThirdPartyLibraries/USBlib/USB/Class/Device/.
 1527              		.file 14 "/opt/XMClib/XMC_Peripheral_Library_v2.1.16/ThirdPartyLibraries/USBlib/USB/Class/Device/.
 1528              		.file 15 "/opt/XMClib/XMC_Peripheral_Library_v2.1.16/ThirdPartyLibraries/USBlib/USB/Class/Device/C
 1529              		.file 16 "/opt/XMClib/XMC_Peripheral_Library_v2.1.16/ThirdPartyLibraries/USBlib/USB/Class/Device/.
 1530              		.file 17 "/usr/arm-none-eabi/include/string.h"