   1              		.cpu cortex-m4
   2              		.arch armv7e-m
   3              		.fpu fpv4-sp-d16
   4              		.eabi_attribute 27, 1
   5              		.eabi_attribute 20, 1
   6              		.eabi_attribute 21, 1
   7              		.eabi_attribute 23, 3
   8              		.eabi_attribute 24, 1
   9              		.eabi_attribute 25, 1
  10              		.eabi_attribute 26, 1
  11              		.eabi_attribute 30, 6
  12              		.eabi_attribute 34, 1
  13              		.eabi_attribute 18, 4
  14              		.file	"ledcontrol.c"
  15              		.text
  16              	.Ltext0:
  17              		.cfi_sections	.debug_frame
  18              		.file 1 "ledcontrol.c"
  19              		.section	.text.main,"ax",%progbits
  20              		.align	1
  21              		.global	main
  22              		.syntax unified
  23              		.thumb
  24              		.thumb_func
  26              	main:
  27              	.LFB128:
   1:ledcontrol.c  **** #include <xmc_common.h>
   2:ledcontrol.c  **** 
   3:ledcontrol.c  **** 
   4:ledcontrol.c  **** 
   5:ledcontrol.c  **** 
   6:ledcontrol.c  **** 
   7:ledcontrol.c  **** 
   8:ledcontrol.c  **** int main(void) {
  28              		.loc 1 8 16
  29              		.cfi_startproc
  30              		@ args = 0, pretend = 0, frame = 0
  31              		@ frame_needed = 1, uses_anonymous_args = 0
  32              		@ link register save eliminated.
  33 0000 80B4     		push	{r7}
  34              	.LCFI0:
  35              		.cfi_def_cfa_offset 4
  36              		.cfi_offset 7, -4
  37 0002 00AF     		add	r7, sp, #0
  38              	.LCFI1:
  39              		.cfi_def_cfa_register 7
   9:ledcontrol.c  **** 
  10:ledcontrol.c  ****   PORT1->IOCR0 |= 0x8080; // set P1.0 and P1.1 as output
  40              		.loc 1 10 8
  41 0004 094B     		ldr	r3, .L3
  42 0006 1B69     		ldr	r3, [r3, #16]
  43 0008 084A     		ldr	r2, .L3
  44              		.loc 1 10 16
  45 000a 43F40043 		orr	r3, r3, #32768
  46 000e 43F08003 		orr	r3, r3, #128
  47 0012 1361     		str	r3, [r2, #16]
  11:ledcontrol.c  **** 
  12:ledcontrol.c  ****   PORT1->OUT |= 0x3; // set P1.0 and P1.1 high
  48              		.loc 1 12 8
  49 0014 054B     		ldr	r3, .L3
  50 0016 1B68     		ldr	r3, [r3]
  51 0018 044A     		ldr	r2, .L3
  52              		.loc 1 12 14
  53 001a 43F00303 		orr	r3, r3, #3
  54 001e 1360     		str	r3, [r2]
  13:ledcontrol.c  ****   while(1){
  14:ledcontrol.c  ****     return 0;
  55              		.loc 1 14 12
  56 0020 0023     		movs	r3, #0
  15:ledcontrol.c  ****   }
  16:ledcontrol.c  ****   
  17:ledcontrol.c  **** }
  57              		.loc 1 17 1
  58 0022 1846     		mov	r0, r3
  59 0024 BD46     		mov	sp, r7
  60              	.LCFI2:
  61              		.cfi_def_cfa_register 13
  62              		@ sp needed
  63 0026 5DF8047B 		ldr	r7, [sp], #4
  64              	.LCFI3:
  65              		.cfi_restore 7
  66              		.cfi_def_cfa_offset 0
  67 002a 7047     		bx	lr
  68              	.L4:
  69              		.align	2
  70              	.L3:
  71 002c 00810248 		.word	1208123648
  72              		.cfi_endproc
  73              	.LFE128:
  75              		.text
  76              	.Letext0:
  77              		.file 2 "/usr/arm-none-eabi/include/machine/_default_types.h"
  78              		.file 3 "/usr/arm-none-eabi/include/sys/_stdint.h"
  79              		.file 4 "/opt/XMClib/XMC_Peripheral_Library_v2.1.16/CMSIS/Infineon/XMC4500_series/Include/XMC4500.