   1              		.cpu cortex-m4
   2              		.arch armv7e-m
   3              		.fpu fpv4-sp-d16
   4              		.eabi_attribute 27, 1
   5              		.eabi_attribute 20, 1
   6              		.eabi_attribute 21, 1
   7              		.eabi_attribute 23, 3
   8              		.eabi_attribute 24, 1
   9              		.eabi_attribute 25, 1
  10              		.eabi_attribute 26, 1
  11              		.eabi_attribute 30, 1
  12              		.eabi_attribute 34, 1
  13              		.eabi_attribute 18, 4
  14              		.file	"main.c"
  15              		.text
  16              	.Ltext0:
  17              		.cfi_sections	.debug_frame
  18              		.file 1 "main.c"
  19              		.section	.text.main,"ax",%progbits
  20              		.align	1
  21              		.global	main
  22              		.syntax unified
  23              		.thumb
  24              		.thumb_func
  26              	main:
  27              	.LFB193:
   1:main.c        **** /* Main source file for assignment 2 part A, which implements shitty homebrewn crypto together with
   2:main.c        ****  * a nasty little stack based buffer overflow
   3:main.c        ****  *
   4:main.c        ****  * Copyright 2018 TUM
   5:main.c        ****  * Created: 2018-11-15 Florian Wilde <florian.wilde@tum.de>
   6:main.c        ****  **************************************************************************************************
   7:main.c        **** 
   8:main.c        ****  #include "VirtualSerial.h"
   9:main.c        ****  #include "packetizer.h"
  10:main.c        ****  #include "crypto.h"
  11:main.c        ****  #include <sodium.h>
  12:main.c        ****  #include "randombytes_salsa20XMC_random.h"
  13:main.c        **** 
  14:main.c        **** 
  15:main.c        **** 
  16:main.c        ****  
  17:main.c        ****  int main(void) {
  28              		.loc 1 17 17 view -0
  29              		.cfi_startproc
  30              		@ args = 0, pretend = 0, frame = 56
  31              		@ frame_needed = 0, uses_anonymous_args = 0
  32 0000 70B5     		push	{r4, r5, r6, lr}
  33              	.LCFI0:
  34              		.cfi_def_cfa_offset 16
  35              		.cfi_offset 4, -16
  36              		.cfi_offset 5, -12
  37              		.cfi_offset 6, -8
  38              		.cfi_offset 14, -4
  39 0002 90B0     		sub	sp, sp, #64
  40              	.LCFI1:
  41              		.cfi_def_cfa_offset 80
  42              		.loc 1 17 17 is_stmt 0 view .LVU1
  43 0004 2F4B     		ldr	r3, .L14
  44 0006 1B68     		ldr	r3, [r3]
  45 0008 0F93     		str	r3, [sp, #60]
  46 000a 4FF00003 		mov	r3, #0
  18:main.c        **** 
  19:main.c        **** 
  20:main.c        ****    pt_s plaintext = { 0 };
  47              		.loc 1 20 4 is_stmt 1 view .LVU2
  48              		.loc 1 20 9 is_stmt 0 view .LVU3
  49 000e 0023     		movs	r3, #0
  50 0010 0493     		str	r3, [sp, #16]
  51 0012 0593     		str	r3, [sp, #20]
  52 0014 0693     		str	r3, [sp, #24]
  21:main.c        ****    ct_s ciphertext = { 0 };
  53              		.loc 1 21 4 is_stmt 1 view .LVU4
  54              		.loc 1 21 9 is_stmt 0 view .LVU5
  55 0016 0293     		str	r3, [sp, #8]
  56 0018 0393     		str	r3, [sp, #12]
  22:main.c        ****    uint8_t key[32] = { 0xc1, 0x0, 0x86, 0xe, 0x15, 0x80, 0x32, 0xeb, 0x82, 0x6, 0x0, 0x10, 0xa, 0x0
  57              		.loc 1 22 4 is_stmt 1 view .LVU6
  58              		.loc 1 22 12 is_stmt 0 view .LVU7
  59 001a 07AC     		add	r4, sp, #28
  60 001c 2A4D     		ldr	r5, .L14+4
  61 001e 0FCD     		ldmia	r5!, {r0, r1, r2, r3}
  62 0020 0FC4     		stmia	r4!, {r0, r1, r2, r3}
  63 0022 95E80F00 		ldm	r5, {r0, r1, r2, r3}
  64 0026 84E80F00 		stm	r4, {r0, r1, r2, r3}
  23:main.c        ****                       0xc1, 0x0, 0x86, 0xe, 0x15, 0x80, 0x32, 0xeb, 0x82, 0x6, 0x0, 0x10, 0xa, 0x0,
  24:main.c        **** 
  25:main.c        ****    //extern struct randombytes_implementation randombytes_salsa20XMC_implementation;
  26:main.c        **** 
  27:main.c        ****    
  28:main.c        ****  
  29:main.c        ****   //  memcpy(key, g_chipid, 16);
  30:main.c        ****   //  memcpy(&key[16], g_chipid, 16);
  31:main.c        **** 
  32:main.c        **** 
  33:main.c        **** 
  34:main.c        **** 
  35:main.c        ****     randombytes_set_implementation(&randombytes_salsa20XMC_implementation);
  65              		.loc 1 35 5 is_stmt 1 view .LVU8
  66 002a 2848     		ldr	r0, .L14+8
  67 002c FFF7FEFF 		bl	randombytes_set_implementation
  68              	.LVL0:
  36:main.c        ****     if (sodium_init() < 0) {
  69              		.loc 1 36 5 view .LVU9
  70              		.loc 1 36 9 is_stmt 0 view .LVU10
  71 0030 FFF7FEFF 		bl	sodium_init
  72              	.LVL1:
  73              		.loc 1 36 8 discriminator 1 view .LVU11
  74 0034 0028     		cmp	r0, #0
  75 0036 05DB     		blt	.L11
  37:main.c        ****      /* panic! the library couldn't be initialized */
  38:main.c        ****      return 1;
  39:main.c        ****    }
  40:main.c        ****   USB_Init();
  76              		.loc 1 40 3 is_stmt 1 view .LVU12
  77 0038 FFF7FEFF 		bl	USB_Init
  78              	.LVL2:
  41:main.c        ****   while(1) {
  42:main.c        ****      /* Consumes incoming data and parses it until we received a valid packet.
  43:main.c        ****         If so, it will fill the plaintextJob struct with the appropriate information. */
  44:main.c        ****      if(packetizerReceive(&plaintext) == 0) {
  79              		.loc 1 44 9 is_stmt 0 view .LVU13
  80 003c 04AC     		add	r4, sp, #16
  45:main.c        ****        /* If the sender did not sent a nonce, generate one */
  46:main.c        ****        if(plaintext.nonce == NULL) {
  47:main.c        ****          plaintext.nonce = sodium_malloc(crypto_secretbox_NONCEBYTES);
  81              		.loc 1 47 28 view .LVU14
  82 003e 1826     		movs	r6, #24
  48:main.c        ****         
  49:main.c        ****          randombytes_buf(plaintext.nonce, crypto_secretbox_NONCEBYTES); 
  50:main.c        ****        }
  51:main.c        ****        /* Now encrypt the plaintext */
  52:main.c        ****     
  53:main.c        ****     
  54:main.c        ****     
  55:main.c        ****        ciphertext.textLen = plaintext.textLen+crypto_secretbox_MACBYTES;
  56:main.c        ****        ciphertext.text = sodium_malloc(ciphertext.textLen);
  57:main.c        **** 
  58:main.c        **** 
  59:main.c        ****        if(crypto_secretbox_easy(ciphertext.text, plaintext.text, plaintext.textLen, plaintext.nonce
  83              		.loc 1 59 11 view .LVU15
  84 0040 0025     		movs	r5, #0
  85 0042 1DE0     		b	.L3
  86              	.L11:
  38:main.c        ****    }
  87              		.loc 1 38 6 is_stmt 1 view .LVU16
  60:main.c        ****                   key) == 0) {
  61:main.c        ****                     
  62:main.c        ****                     ciphertext.textLen = plaintext.textLen+crypto_secretbox_MACBYTES;
  63:main.c        ****                     /* Finally, if encryption was successful, send ciphertext back in a packet */
  64:main.c        ****          packetizerSend(&ciphertext);
  65:main.c        ****        }
  66:main.c        ****        /* Free all buffers that were allocated in the meantime */
  67:main.c        ****        sodium_free(plaintext.nonce);
  68:main.c        ****        plaintext.nonce = NULL;
  69:main.c        ****        sodium_free(ciphertext.text);
  70:main.c        ****        ciphertext.text = NULL;
  71:main.c        ****        free(plaintext.text);
  72:main.c        ****        plaintext.text = NULL;
  73:main.c        **** 
  74:main.c        **** 
  75:main.c        ****      }
  76:main.c        ****    }
  77:main.c        **** 
  78:main.c        ****   }...
  88              		.loc 1 78 3 is_stmt 0 view .LVU17
  89 0044 1F4B     		ldr	r3, .L14
  90 0046 1A68     		ldr	r2, [r3]
  91 0048 0F9B     		ldr	r3, [sp, #60]
  92 004a 5A40     		eors	r2, r3, r2
  93 004c 4FF00003 		mov	r3, #0
  94 0050 36D1     		bne	.L12
  95 0052 0120     		movs	r0, #1
  96 0054 10B0     		add	sp, sp, #64
  97              	.LCFI2:
  98              		.cfi_remember_state
  99              		.cfi_def_cfa_offset 16
 100              		@ sp needed
 101 0056 70BD     		pop	{r4, r5, r6, pc}
 102              	.L13:
 103              	.LCFI3:
 104              		.cfi_restore_state
  47:main.c        ****          plaintext.nonce = sodium_malloc(crypto_secretbox_NONCEBYTES);
 105              		.loc 1 47 10 is_stmt 1 view .LVU18
  47:main.c        ****          plaintext.nonce = sodium_malloc(crypto_secretbox_NONCEBYTES);
 106              		.loc 1 47 28 is_stmt 0 view .LVU19
 107 0058 3046     		mov	r0, r6
 108 005a FFF7FEFF 		bl	sodium_malloc
 109              	.LVL3:
  47:main.c        ****          plaintext.nonce = sodium_malloc(crypto_secretbox_NONCEBYTES);
 110              		.loc 1 47 26 discriminator 1 view .LVU20
 111 005e 0690     		str	r0, [sp, #24]
  49:main.c        ****          randombytes_buf(plaintext.nonce, crypto_secretbox_NONCEBYTES); 
 112              		.loc 1 49 10 is_stmt 1 view .LVU21
 113 0060 3146     		mov	r1, r6
 114 0062 FFF7FEFF 		bl	randombytes_buf
 115              	.LVL4:
 116 0066 13E0     		b	.L4
 117              	.L5:
  67:main.c        ****        sodium_free(plaintext.nonce);
 118              		.loc 1 67 8 view .LVU22
 119 0068 0698     		ldr	r0, [sp, #24]
 120 006a FFF7FEFF 		bl	sodium_free
 121              	.LVL5:
  68:main.c        ****        plaintext.nonce = NULL;
 122              		.loc 1 68 8 view .LVU23
  68:main.c        ****        plaintext.nonce = NULL;
 123              		.loc 1 68 24 is_stmt 0 view .LVU24
 124 006e 0695     		str	r5, [sp, #24]
  69:main.c        ****        sodium_free(ciphertext.text);
 125              		.loc 1 69 8 is_stmt 1 view .LVU25
 126 0070 0298     		ldr	r0, [sp, #8]
 127 0072 FFF7FEFF 		bl	sodium_free
 128              	.LVL6:
  70:main.c        ****        ciphertext.text = NULL;
 129              		.loc 1 70 8 view .LVU26
  70:main.c        ****        ciphertext.text = NULL;
 130              		.loc 1 70 24 is_stmt 0 view .LVU27
 131 0076 0295     		str	r5, [sp, #8]
  71:main.c        ****        free(plaintext.text);
 132              		.loc 1 71 8 is_stmt 1 view .LVU28
 133 0078 0498     		ldr	r0, [sp, #16]
 134 007a FFF7FEFF 		bl	free
 135              	.LVL7:
  72:main.c        ****        plaintext.text = NULL;
 136              		.loc 1 72 8 view .LVU29
  72:main.c        ****        plaintext.text = NULL;
 137              		.loc 1 72 23 is_stmt 0 view .LVU30
 138 007e 0495     		str	r5, [sp, #16]
 139              	.L3:
  41:main.c        ****   while(1) {
 140              		.loc 1 41 3 is_stmt 1 view .LVU31
  44:main.c        ****      if(packetizerReceive(&plaintext) == 0) {
 141              		.loc 1 44 6 view .LVU32
  44:main.c        ****      if(packetizerReceive(&plaintext) == 0) {
 142              		.loc 1 44 9 is_stmt 0 view .LVU33
 143 0080 2046     		mov	r0, r4
 144 0082 FFF7FEFF 		bl	packetizerReceive
 145              	.LVL8:
  44:main.c        ****      if(packetizerReceive(&plaintext) == 0) {
 146              		.loc 1 44 8 discriminator 1 view .LVU34
 147 0086 0028     		cmp	r0, #0
 148 0088 FAD1     		bne	.L3
  46:main.c        ****        if(plaintext.nonce == NULL) {
 149              		.loc 1 46 8 is_stmt 1 view .LVU35
  46:main.c        ****        if(plaintext.nonce == NULL) {
 150              		.loc 1 46 10 is_stmt 0 view .LVU36
 151 008a 069B     		ldr	r3, [sp, #24]
 152 008c 002B     		cmp	r3, #0
 153 008e E3D0     		beq	.L13
 154              	.L4:
  55:main.c        ****        ciphertext.textLen = plaintext.textLen+crypto_secretbox_MACBYTES;
 155              		.loc 1 55 8 is_stmt 1 view .LVU37
  55:main.c        ****        ciphertext.textLen = plaintext.textLen+crypto_secretbox_MACBYTES;
 156              		.loc 1 55 46 is_stmt 0 view .LVU38
 157 0090 0598     		ldr	r0, [sp, #20]
 158 0092 1030     		adds	r0, r0, #16
  55:main.c        ****        ciphertext.textLen = plaintext.textLen+crypto_secretbox_MACBYTES;
 159              		.loc 1 55 27 view .LVU39
 160 0094 0390     		str	r0, [sp, #12]
  56:main.c        ****        ciphertext.text = sodium_malloc(ciphertext.textLen);
 161              		.loc 1 56 8 is_stmt 1 view .LVU40
  56:main.c        ****        ciphertext.text = sodium_malloc(ciphertext.textLen);
 162              		.loc 1 56 26 is_stmt 0 view .LVU41
 163 0096 FFF7FEFF 		bl	sodium_malloc
 164              	.LVL9:
  56:main.c        ****        ciphertext.text = sodium_malloc(ciphertext.textLen);
 165              		.loc 1 56 24 discriminator 1 view .LVU42
 166 009a 0290     		str	r0, [sp, #8]
  59:main.c        ****        if(crypto_secretbox_easy(ciphertext.text, plaintext.text, plaintext.textLen, plaintext.nonce
 167              		.loc 1 59 8 is_stmt 1 view .LVU43
  59:main.c        ****        if(crypto_secretbox_easy(ciphertext.text, plaintext.text, plaintext.textLen, plaintext.nonce
 168              		.loc 1 59 11 is_stmt 0 view .LVU44
 169 009c 07AB     		add	r3, sp, #28
 170 009e 0193     		str	r3, [sp, #4]
 171 00a0 069B     		ldr	r3, [sp, #24]
 172 00a2 0093     		str	r3, [sp]
 173 00a4 059A     		ldr	r2, [sp, #20]
 174 00a6 2B46     		mov	r3, r5
 175 00a8 0499     		ldr	r1, [sp, #16]
 176 00aa FFF7FEFF 		bl	crypto_secretbox_easy
 177              	.LVL10:
  59:main.c        ****        if(crypto_secretbox_easy(ciphertext.text, plaintext.text, plaintext.textLen, plaintext.nonce
 178              		.loc 1 59 10 discriminator 1 view .LVU45
 179 00ae 0028     		cmp	r0, #0
 180 00b0 DAD1     		bne	.L5
  62:main.c        ****                     ciphertext.textLen = plaintext.textLen+crypto_secretbox_MACBYTES;
 181              		.loc 1 62 21 is_stmt 1 view .LVU46
  62:main.c        ****                     ciphertext.textLen = plaintext.textLen+crypto_secretbox_MACBYTES;
 182              		.loc 1 62 59 is_stmt 0 view .LVU47
 183 00b2 059B     		ldr	r3, [sp, #20]
 184 00b4 1033     		adds	r3, r3, #16
  62:main.c        ****                     ciphertext.textLen = plaintext.textLen+crypto_secretbox_MACBYTES;
 185              		.loc 1 62 40 view .LVU48
 186 00b6 0393     		str	r3, [sp, #12]
  64:main.c        ****          packetizerSend(&ciphertext);
 187              		.loc 1 64 10 is_stmt 1 view .LVU49
 188 00b8 02A8     		add	r0, sp, #8
 189 00ba FFF7FEFF 		bl	packetizerSend
 190              	.LVL11:
 191 00be D3E7     		b	.L5
 192              	.L12:
 193              		.loc 1 78 3 is_stmt 0 view .LVU50
 194 00c0 FFF7FEFF 		bl	__stack_chk_fail
 195              	.LVL12:
 196              	.L15:
 197              		.align	2
 198              	.L14:
 199 00c4 00000000 		.word	__stack_chk_guard
 200 00c8 00000000 		.word	.LANCHOR0
 201 00cc 00000000 		.word	randombytes_salsa20XMC_implementation
 202              		.cfi_endproc
 203              	.LFE193:
 205              		.section	.rodata
 206              		.align	2
 207              		.set	.LANCHOR0,. + 0
 208              	.LC0:
 209 0000 C100860E 		.ascii	"\301\000\206\016\025\2002\353\202\006\000\020\012\000"
 209      158032EB 
 209      82060010 
 209      0A00
 210 000e 0000C100 		.ascii	"\000\000\301\000\206\016\025\2002\353\202\006\000\020"
 210      860E1580 
 210      32EB8206 
 210      0010
 211 001c 0A000000 		.ascii	"\012\000\000\000"
 212              		.text
 213              	.Letext0:
 214              		.file 2 "/usr/arm-none-eabi/include/machine/_default_types.h"
 215              		.file 3 "/usr/arm-none-eabi/include/sys/_stdint.h"
 216              		.file 4 "/usr/lib/gcc/arm-none-eabi/14.2.0/include/stddef.h"
 217              		.file 5 "packetizer.h"
 218              		.file 6 "/home/milovalle/Documents/TUM/ESS_LAB/sodium_1-0-15_ARMcompiled/sodium/sodium-1.0.15/incl
 219              		.file 7 "/usr/arm-none-eabi/include/stdlib.h"
 220              		.file 8 "/home/milovalle/Documents/TUM/ESS_LAB/sodium_1-0-15_ARMcompiled/sodium/sodium-1.0.15/incl
 221              		.file 9 "/home/milovalle/Documents/TUM/ESS_LAB/sodium_1-0-15_ARMcompiled/sodium/sodium-1.0.15/incl
 222              		.file 10 "randombytes_salsa20XMC_random.h"
 223              		.file 11 "VirtualSerial.h"
 224              		.file 12 "/home/milovalle/Documents/TUM/ESS_LAB/sodium_1-0-15_ARMcompiled/sodium/sodium-1.0.15/inc
DEFINED SYMBOLS
                            *ABS*:00000000 main.c
     /tmp/ccyUFYMx.s:20     .text.main:00000000 $t
     /tmp/ccyUFYMx.s:26     .text.main:00000000 main
     /tmp/ccyUFYMx.s:199    .text.main:000000c4 $d
     /tmp/ccyUFYMx.s:206    .rodata:00000000 $d
                           .group:00000000 wm4.0.72866714a5966c404084f8c69e3df25d
                           .group:00000000 wm4.USB.h.376.cfdb9ecb25c70fec676f585dede264a7
                           .group:00000000 wm4.Common.h.60.c2f00e237f5994003db83c2422602b22
                           .group:00000000 wm4._newlib_version.h.4.0eb654b64686e2bd29646258853f6c22
                           .group:00000000 wm4.features.h.33.00009458517f941082eec7afb4810922
                           .group:00000000 wm4._default_types.h.15.247e5cd201eca3442cbf5404108c4935
                           .group:00000000 wm4._intsup.h.10.48bafbb683905c4daa4565a85aeeb264
                           .group:00000000 wm4._stdint.h.10.c24fa3af3bc1706662bb5593a907e841
                           .group:00000000 wm4.stdint.h.23.d53047a68f4a85177f80b422d52785ed
                           .group:00000000 wm4.stdbool.h.29.c08aa3eec75cf5b9b5003883f43253f0
                           .group:00000000 wm4.newlib.h.7.a37ffbe9e5aff74303f4e60b1cc1c01b
                           .group:00000000 wm4.ieeefp.h.77.61a77db5804869b1dadd307a77cf78c9
                           .group:00000000 wm4.config.h.224.10ee1ad185d877c6e334e6581faab44d
                           .group:00000000 wm4._ansi.h.31.de524f58584151836e90d8620a16f8e8
                           .group:00000000 wm4.stddef.h.39.38eb7ec030421799c657b13be5aa21c7
                           .group:00000000 wm4.cdefs.h.49.bafb023044e47a1dcdd854e4d6521f7d
                           .group:00000000 wm4._types.h.20.dd0d04dca3800a0d2a6129b87f3adbb2
                           .group:00000000 wm4.stddef.h.158.6f8e08a347b1cff664332fa350bfceb3
                           .group:00000000 wm4._types.h.127.3bdfe3ff8ea2d0985b03d9cbe93480e3
                           .group:00000000 wm4.reent.h.18.25503cdc8b7e55dd0d6ea7b3e5af7a03
                           .group:00000000 wm4.lock.h.2.1461d1fff82dffe8bfddc23307f6484f
                           .group:00000000 wm4.reent.h.78.6b87466b04591b1f1cb88c14fdf2ba9e
                           .group:00000000 wm4.string.h.15.dab3980bf35408a4c507182805e2de3a
                           .group:00000000 wm4.stddef.h.158.eec8bf00b5213f43d095cb984c5f22e3
                           .group:00000000 wm4.BoardTypes.h.52.ca64813ccee737bcc2115eab5e075fdb
                           .group:00000000 wm4.CompilerSpecific.h.55.4a5e5ff77cd35e49c89cf2115251aee0
                           .group:00000000 wm4.Attributes.h.56.73b3ee26b0836c2dec569a5fa6f1b355
                           .group:00000000 wm4.xmc_device.h.61.ba2d082e12f51240746cffdd60d42b81
                           .group:00000000 wm4.XMC4500.h.55.9aa45b9b5790506b2dcb963e4e7adeaf
                           .group:00000000 wm4.core_cm4.h.32.6c6eb1c8daeca23ce7ba79c8e8120d52
                           .group:00000000 wm4.cmsis_gcc.h.26.91b63349961c35637933e4fba51b867b
                           .group:00000000 wm4.core_cm4.h.172.fdd5a388a160bb6ff767b7d7ee212268
                           .group:00000000 wm4.system_XMC4500.h.42.99124977c10ca8844a71949adbeabd70
                           .group:00000000 wm4.XMC4500.h.208.b340195df97f067735c4c769ba59985a
                           .group:00000000 wm4.xmc_device.h.1460.8860499b404961ffcfbb8d1fefcb2146
                           .group:00000000 wm4.xmc_common.h.92.3f4336a80569affab05a81145b87c2fc
                           .group:00000000 wm4.Endianness.h.57.3ac00c5468f4b91b806a0e6dba047e9c
                           .group:00000000 wm4.Common.h.105.4b937a9cc9dcdb26c3f07541b0b763a8
                           .group:00000000 wm4.USBController.h.49.cbfc73805155b6fff6267400af3f4eec
                           .group:00000000 wm4.stdlib.h.13.4ed386f5c1a80d71e72172885d946ef2
                           .group:00000000 wm4.alloca.h.8.dfc0c703c47ec3e69746825b17d9e66d
                           .group:00000000 wm4.stdlib.h.56.f4862cfbf4363a1db01842d5bdf72c18
                           .group:00000000 wm4.xmc_usbd_regs.h.80.57c6c85fa0ecbc9f8327ce445aebb9bc
                           .group:00000000 wm4.xmc4_scu.h.83.0449f5880ac071460ec1a8072311ea51
                           .group:00000000 wm4.xmc_usbd.h.122.ce57a9e6a9da48ee33ece02813c49593
                           .group:00000000 wm4.USBController_XMC4000.h.71.902f2653e09cb8b25245faa82cc6b907
                           .group:00000000 wm4.StdDescriptors.h.73.7d17e8be7a73b855fc0f8827303b7597
                           .group:00000000 wm4.Endpoint.h.73.3734de3e84ab23fb43d81f41fba620ec
                           .group:00000000 wm4.Device_XMC4000.h.86.6803bdd99d84e764a570256c87a24d0a
                           .group:00000000 wm4.StdRequestType.h.50.461dce94a3ee1fa9ff31ec5f28bd9699
                           .group:00000000 wm4.ConfigDescriptors.h.51.0d67ebf453774188abf5a503ba8f6735
                           .group:00000000 wm4.CDCClass.h.61.0d41ba255f7ce6f076fd610d8396dd1f
                           .group:00000000 wm4.CDCClassCommon.h.72.14ca578d8547e19a8a0c0d2d328483bd
                           .group:00000000 wm4.stdio.h.27.3fc80220048df77954e38daec3bb9670
                           .group:00000000 wm4.stdarg.h.34.3a23a216c0c293b3d2ea2e89281481e6
                           .group:00000000 wm4.stdio.h.47.dc31ec4674d7bcb103c9f08809549f45
                           .group:00000000 wm4.stdio.h.2.4aa87247282eca6c8f36f9de33d8df1a
                           .group:00000000 wm4.stdio.h.87.a1e20d2651f9bfb66e51bfbe849db00a
                           .group:00000000 wm4.HIDClass.h.62.6bb32c59177b21a83b8e65c5a1b0a615
                           .group:00000000 wm4.HIDReportData.h.47.f13f4956396e0bec70835fe634fcc24d
                           .group:00000000 wm4.HIDParser.h.88.4b86fe94cb8d01713592cdd0391b606b
                           .group:00000000 wm4.HIDClassCommon.h.71.a60cdf9d7cd69289f43dde215b509193
                           .group:00000000 wm4.MassStorageClass.h.61.e9235f3bd090b77f36343f082ef93107
                           .group:00000000 wm4.MassStorageClassCommon.h.51.6aefecf288eb3c3c6c9bde61e26dd765
                           .group:00000000 wm4.Descriptors.h.44.84a4fd312957d0d42fb6aaa001850ba4
                           .group:00000000 wm4.crypto.h.8.3c7e0671468cbc28e07567ab2d290f6b
                           .group:00000000 wm4.base64url.h.26.ed1fee22e760dd991443f292d5830091
                           .group:00000000 wm4.packetizer.h.44.8cfee869db25400923a603e5cc82ed56
                           .group:00000000 wm4.export.h.3.069642e50a739d7e8bd572e0f5b91055
                           .group:00000000 wm4.version.h.7.67bf2b3b67cf03da91c1caf057b82007
                           .group:00000000 wm4.crypto_aead_aes256gcm.h.37.f06c3a2a9916b28d25ce521d8b6d30e4
                           .group:00000000 wm4.crypto_aead_chacha20poly1305.h.16.67f32ece6ebd6cc049f0715e6b0e69ad
                           .group:00000000 wm4.crypto_aead_xchacha20poly1305.h.14.207cc4aaabdc929ff2099eb0d69ab920
                           .group:00000000 wm4.crypto_auth_hmacsha512.h.15.eff7eeeca3f76c97d40891c6c26e8d71
                           .group:00000000 wm4.crypto_auth_hmacsha512256.h.15.b6821f43a6086964daa3251b570bc8c2
                           .group:00000000 wm4.crypto_auth.h.16.9400a02c736a8b1e08e491366cd27257
                           .group:00000000 wm4.crypto_auth_hmacsha256.h.15.0077d2e439598abd38aec2ace6d6cdd5
                           .group:00000000 wm4.crypto_stream_xsalsa20.h.23.33c3ee5c33e5737b167c543228736927
                           .group:00000000 wm4.crypto_box_curve25519xsalsa20poly1305.h.15.47fdbfcdf23b14f859f1ab73a31d81d2
                           .group:00000000 wm4.crypto_box.h.23.36db1a3020b3ecbf502815296470a53b
                           .group:00000000 wm4.crypto_core_hsalsa20.h.11.6f5bd4777af7294e0d853efc87225dec
                           .group:00000000 wm4.crypto_core_hchacha20.h.11.2c628b8667ba9d0d71939f1e8d47caaa
                           .group:00000000 wm4.crypto_core_salsa20.h.11.7ce30578633b77708df2486e23cf2d41
                           .group:00000000 wm4.crypto_core_salsa2012.h.11.c0d7428a1384f8b0cbb03fb392196513
                           .group:00000000 wm4.crypto_core_salsa208.h.11.2c518617446b00e93a2e8c0c6a2cb17d
                           .group:00000000 wm4.crypto_generichash_blake2b.h.38.4b6d675038c455959c90c43a75693d35
                           .group:00000000 wm4.crypto_generichash.h.16.771391b6badc9219de7753c54a91592a
                           .group:00000000 wm4.crypto_hash.h.23.c22d9cbc719debf3450c41dc1cb030f6
                           .group:00000000 wm4.crypto_kdf_blake2b.h.17.2fdb3afa142f0f4e2d520a0f2ed3aac9
                           .group:00000000 wm4.crypto_kdf.h.17.5c8c60d3d3b88115f88aea210415241a
                           .group:00000000 wm4.crypto_kx.h.15.b446ee9d39f22111a7b84c74adc80539
                           .group:00000000 wm4.types.h.40.8b6acba56cefbb11746718204edc8f5e
                           .group:00000000 wm4._endian.h.31.65a10590763c3dde1ac4a7f66d7d4891
                           .group:00000000 wm4.endian.h.9.49f3a4695c1b61e8a0808de3c4a106cb
                           .group:00000000 wm4._timeval.h.32.bec3221fa7a9bb0bdde696c9c57e47d2
                           .group:00000000 wm4.timespec.h.41.d855182eb0e690443ab8651bcedca6e1
                           .group:00000000 wm4.select.h.19.8c04bee5682eafa577cf6325dd7ee64c
                           .group:00000000 wm4.types.h.51.5ecfc21b937ad2a3fcc45d8f305131a2
                           .group:00000000 wm4.sched.h.22.c60982713a5c428609783c78f9c78d95
                           .group:00000000 wm4._pthreadtypes.h.36.fcee9961c35163dde6267ef772ad1972
                           .group:00000000 wm4.crypto_onetimeauth_poly1305.h.26.080c97f3e33cb3564481b2afa86a1c5b
                           .group:00000000 wm4.crypto_onetimeauth.h.21.dab310d1ac5639131792e5f80761f399
                           .group:00000000 wm4.syslimits.h.34.de5cbd310098bc5895998b6bde577ed2
                           .group:00000000 wm4.limits.h.9.70fb0ada6f71b16202a66baaa6d8ea70
                           .group:00000000 wm4.limits.h.60.56a1ae353e2028a24298ec6463b8b593
                           .group:00000000 wm4.crypto_pwhash_argon2i.h.17.7efc8566fd80d0aa25a92905ba299d17
                           .group:00000000 wm4.crypto_pwhash_argon2id.h.17.3776a3d43da07ec2a2ce4f641491ac5c
                           .group:00000000 wm4.crypto_pwhash.h.17.e54c9eb9913f339a6ab67545d97d3cb6
                           .group:00000000 wm4.crypto_scalarmult_curve25519.h.12.a04608b0d5b783eeaeea57e826f42071
                           .group:00000000 wm4.crypto_scalarmult.h.13.4b20e331e974ed3d97708f65e3d09ff7
                           .group:00000000 wm4.crypto_secretbox_xsalsa20poly1305.h.15.c9d857dc1ea465bb2950509a5d6827a2
                           .group:00000000 wm4.crypto_secretbox.h.16.74468d3816cf4274cae7e8825a2ac49f
                           .group:00000000 wm4.crypto_stream_chacha20.h.23.7f39f7dfc92696b60601f2c683245511
                           .group:00000000 wm4.crypto_secretstream_xchacha20poly1305.h.17.979cddb9e5bdd495ebbc5568661cf9c5
                           .group:00000000 wm4.crypto_shorthash_siphash24.h.16.818ac93010098b15c9530c60724e71cf
                           .group:00000000 wm4.crypto_shorthash.h.16.cf5f829a6555012edb52b2ee5653a691
                           .group:00000000 wm4.crypto_sign_ed25519.h.22.07782bf1d908046d9a70e5cf10af901c
                           .group:00000000 wm4.crypto_sign.h.28.a3247a8a761034c27bfcc3699825dc31
                           .group:00000000 wm4.crypto_stream.h.24.5deb85fa59e80e8dc0f5f7ac9213cae8
                           .group:00000000 wm4.crypto_stream_salsa20.h.23.fc01df25aec77276d8dd631cf7c6b2db
                           .group:00000000 wm4.randombytes.h.28.d92c4e5a57bf52557a9782c27b663a62
                           .group:00000000 wm4.utils.h.17.31ca9da2b3c3d17cb1ce98c0f528b530
                           .group:00000000 wm4.crypto_stream_xchacha20.h.23.1c98e48d07b332b3e5362ddf35d6f170
                           .group:00000000 wm4.crypto_box_curve25519xchacha20poly1305.h.16.c730b274b2e8e0087c78faa13784b0ca
                           .group:00000000 wm4.crypto_secretbox_xchacha20poly1305.h.15.79de7bec24244041b03221fe64a1405a
                           .group:00000000 wm4.crypto_pwhash_scryptsalsa208sha256.h.17.3af592158e8339e18e48fc8487319250
                           .group:00000000 wm4.crypto_stream_salsa2012.h.22.08bdb7be901746f92b3b3e7fcdc77e17
                           .group:00000000 wm4.crypto_stream_salsa208.h.22.9a5ceb273178e4c72d667eeaa8da7b04
                           .group:00000000 wm4.randombytes_salsa20XMC_random.h.30.c255d9afffd6579bce6c1fffc9331283

UNDEFINED SYMBOLS
randombytes_set_implementation
sodium_init
USB_Init
sodium_malloc
randombytes_buf
sodium_free
free
packetizerReceive
crypto_secretbox_easy
packetizerSend
__stack_chk_fail
__stack_chk_guard
randombytes_salsa20XMC_implementation
