   1              		.cpu cortex-m4
   2              		.arch armv7e-m
   3              		.fpu fpv4-sp-d16
   4              		.eabi_attribute 27, 1
   5              		.eabi_attribute 20, 1
   6              		.eabi_attribute 21, 1
   7              		.eabi_attribute 23, 3
   8              		.eabi_attribute 24, 1
   9              		.eabi_attribute 25, 1
  10              		.eabi_attribute 26, 1
  11              		.eabi_attribute 30, 1
  12              		.eabi_attribute 34, 1
  13              		.eabi_attribute 18, 4
  14              		.file	"main.c"
  15              		.text
  16              	.Ltext0:
  17              		.cfi_sections	.debug_frame
  18              		.file 1 "main.c"
  19              		.section	.text.main,"ax",%progbits
  20              		.align	1
  21              		.global	main
  22              		.syntax unified
  23              		.thumb
  24              		.thumb_func
  26              	main:
  27              	.LFB193:
   1:main.c        **** /* Main source file for assignment 2 part A, which implements shitty homebrewn crypto together with
   2:main.c        ****  * a nasty little stack based buffer overflow
   3:main.c        ****  *
   4:main.c        ****  * Copyright 2018 TUM
   5:main.c        ****  * Created: 2018-11-15 Florian Wilde <florian.wilde@tum.de>
   6:main.c        ****  **************************************************************************************************
   7:main.c        **** 
   8:main.c        ****  #include "VirtualSerial.h"
   9:main.c        ****  #include "packetizer.h"
  10:main.c        ****  #include "crypto.h"
  11:main.c        ****  #include <sodium.h>
  12:main.c        ****  #include "randombytes_salsa20XMC_random.h"
  13:main.c        **** 
  14:main.c        **** 
  15:main.c        **** 
  16:main.c        ****  
  17:main.c        ****  int main(void) {
  28              		.loc 1 17 17 view -0
  29              		.cfi_startproc
  30              		@ args = 0, pretend = 0, frame = 56
  31              		@ frame_needed = 0, uses_anonymous_args = 0
  32 0000 70B5     		push	{r4, r5, r6, lr}
  33              	.LCFI0:
  34              		.cfi_def_cfa_offset 16
  35              		.cfi_offset 4, -16
  36              		.cfi_offset 5, -12
  37              		.cfi_offset 6, -8
  38              		.cfi_offset 14, -4
  39 0002 90B0     		sub	sp, sp, #64
  40              	.LCFI1:
  41              		.cfi_def_cfa_offset 80
  42              		.loc 1 17 17 is_stmt 0 view .LVU1
  43 0004 2F4B     		ldr	r3, .L14
  44 0006 1B68     		ldr	r3, [r3]
  45 0008 0F93     		str	r3, [sp, #60]
  46 000a 4FF00003 		mov	r3, #0
  18:main.c        **** 
  19:main.c        **** 
  20:main.c        ****    pt_s plaintext = { 0 };
  47              		.loc 1 20 4 is_stmt 1 view .LVU2
  48              		.loc 1 20 9 is_stmt 0 view .LVU3
  49 000e 0023     		movs	r3, #0
  50 0010 0493     		str	r3, [sp, #16]
  51 0012 0593     		str	r3, [sp, #20]
  52 0014 0693     		str	r3, [sp, #24]
  21:main.c        ****    ct_s ciphertext = { 0 };
  53              		.loc 1 21 4 is_stmt 1 view .LVU4
  54              		.loc 1 21 9 is_stmt 0 view .LVU5
  55 0016 0293     		str	r3, [sp, #8]
  56 0018 0393     		str	r3, [sp, #12]
  22:main.c        ****    uint8_t key[32] = { 0xc1, 0x0, 0x86, 0xe, 0x15, 0x80, 0x32, 0xeb, 0x82, 0x6, 0x0, 0x10, 0xa, 0x0
  57              		.loc 1 22 4 is_stmt 1 view .LVU6
  58              		.loc 1 22 12 is_stmt 0 view .LVU7
  59 001a 07AC     		add	r4, sp, #28
  60 001c 2A4D     		ldr	r5, .L14+4
  61 001e 0FCD     		ldmia	r5!, {r0, r1, r2, r3}
  62 0020 0FC4     		stmia	r4!, {r0, r1, r2, r3}
  63 0022 95E80F00 		ldm	r5, {r0, r1, r2, r3}
  64 0026 84E80F00 		stm	r4, {r0, r1, r2, r3}
  23:main.c        ****                       0xc1, 0x0, 0x86, 0xe, 0x15, 0x80, 0x32, 0xeb, 0x82, 0x6, 0x0, 0x10, 0xa, 0x0,
  24:main.c        **** 
  25:main.c        ****    //extern struct randombytes_implementation randombytes_salsa20XMC_implementation;
  26:main.c        **** 
  27:main.c        ****    
  28:main.c        ****  
  29:main.c        ****   //  memcpy(key, g_chipid, 16);
  30:main.c        ****   //  memcpy(&key[16], g_chipid, 16);
  31:main.c        **** 
  32:main.c        **** 
  33:main.c        **** 
  34:main.c        **** 
  35:main.c        ****     randombytes_set_implementation(&randombytes_salsa20XMC_implementation);
  65              		.loc 1 35 5 is_stmt 1 view .LVU8
  66 002a 2848     		ldr	r0, .L14+8
  67 002c FFF7FEFF 		bl	randombytes_set_implementation
  68              	.LVL0:
  36:main.c        ****     if (sodium_init() < 0) {
  69              		.loc 1 36 5 view .LVU9
  70              		.loc 1 36 9 is_stmt 0 view .LVU10
  71 0030 FFF7FEFF 		bl	sodium_init
  72              	.LVL1:
  73              		.loc 1 36 8 discriminator 1 view .LVU11
  74 0034 0028     		cmp	r0, #0
  75 0036 05DB     		blt	.L11
  37:main.c        ****      /* panic! the library couldn't be initialized */
  38:main.c        ****      return 1;
  39:main.c        ****    }
  40:main.c        ****   USB_Init();
  76              		.loc 1 40 3 is_stmt 1 view .LVU12
  77 0038 FFF7FEFF 		bl	USB_Init
  78              	.LVL2:
  41:main.c        ****   while(1) {
  42:main.c        ****      /* Consumes incoming data and parses it until we received a valid packet.
  43:main.c        ****         If so, it will fill the plaintextJob struct with the appropriate information. */
  44:main.c        ****      if(packetizerReceive(&plaintext) == 0) {
  79              		.loc 1 44 9 is_stmt 0 view .LVU13
  80 003c 04AC     		add	r4, sp, #16
  45:main.c        ****        /* If the sender did not sent a nonce, generate one */
  46:main.c        ****        if(plaintext.nonce == NULL) {
  47:main.c        ****          plaintext.nonce = sodium_malloc(crypto_secretbox_NONCEBYTES);
  81              		.loc 1 47 28 view .LVU14
  82 003e 1826     		movs	r6, #24
  48:main.c        ****         
  49:main.c        ****          randombytes_buf(plaintext.nonce, crypto_secretbox_NONCEBYTES); 
  50:main.c        ****        }
  51:main.c        ****        /* Now encrypt the plaintext */
  52:main.c        ****     
  53:main.c        ****     
  54:main.c        ****     
  55:main.c        ****        ciphertext.textLen = plaintext.textLen+crypto_secretbox_MACBYTES;
  56:main.c        ****        ciphertext.text = sodium_malloc(ciphertext.textLen);
  57:main.c        **** 
  58:main.c        **** 
  59:main.c        ****        if(crypto_secretbox_easy(ciphertext.text, plaintext.text, plaintext.textLen, plaintext.nonce
  83              		.loc 1 59 11 view .LVU15
  84 0040 0025     		movs	r5, #0
  85 0042 1DE0     		b	.L3
  86              	.L11:
  38:main.c        ****    }
  87              		.loc 1 38 6 is_stmt 1 view .LVU16
  60:main.c        ****                   key) == 0) {
  61:main.c        ****                     
  62:main.c        ****                     ciphertext.textLen = plaintext.textLen+crypto_secretbox_MACBYTES;
  63:main.c        ****                     /* Finally, if encryption was successful, send ciphertext back in a packet */
  64:main.c        ****          packetizerSend(&ciphertext);
  65:main.c        ****        }
  66:main.c        ****        /* Free all buffers that were allocated in the meantime */
  67:main.c        ****        sodium_free(plaintext.nonce);
  68:main.c        ****        plaintext.nonce = NULL;
  69:main.c        ****        sodium_free(ciphertext.text);
  70:main.c        ****        ciphertext.text = NULL;
  71:main.c        ****        free(plaintext.text);
  72:main.c        ****        plaintext.text = NULL;
  73:main.c        **** 
  74:main.c        **** 
  75:main.c        ****      }
  76:main.c        ****    }
  77:main.c        **** 
  78:main.c        ****   }...
  88              		.loc 1 78 3 is_stmt 0 view .LVU17
  89 0044 1F4B     		ldr	r3, .L14
  90 0046 1A68     		ldr	r2, [r3]
  91 0048 0F9B     		ldr	r3, [sp, #60]
  92 004a 5A40     		eors	r2, r3, r2
  93 004c 4FF00003 		mov	r3, #0
  94 0050 36D1     		bne	.L12
  95 0052 0120     		movs	r0, #1
  96 0054 10B0     		add	sp, sp, #64
  97              	.LCFI2:
  98              		.cfi_remember_state
  99              		.cfi_def_cfa_offset 16
 100              		@ sp needed
 101 0056 70BD     		pop	{r4, r5, r6, pc}
 102              	.L13:
 103              	.LCFI3:
 104              		.cfi_restore_state
  47:main.c        ****          plaintext.nonce = sodium_malloc(crypto_secretbox_NONCEBYTES);
 105              		.loc 1 47 10 is_stmt 1 view .LVU18
  47:main.c        ****          plaintext.nonce = sodium_malloc(crypto_secretbox_NONCEBYTES);
 106              		.loc 1 47 28 is_stmt 0 view .LVU19
 107 0058 3046     		mov	r0, r6
 108 005a FFF7FEFF 		bl	sodium_malloc
 109              	.LVL3:
  47:main.c        ****          plaintext.nonce = sodium_malloc(crypto_secretbox_NONCEBYTES);
 110              		.loc 1 47 26 discriminator 1 view .LVU20
 111 005e 0690     		str	r0, [sp, #24]
  49:main.c        ****          randombytes_buf(plaintext.nonce, crypto_secretbox_NONCEBYTES); 
 112              		.loc 1 49 10 is_stmt 1 view .LVU21
 113 0060 3146     		mov	r1, r6
 114 0062 FFF7FEFF 		bl	randombytes_buf
 115              	.LVL4:
 116 0066 13E0     		b	.L4
 117              	.L5:
  67:main.c        ****        sodium_free(plaintext.nonce);
 118              		.loc 1 67 8 view .LVU22
 119 0068 0698     		ldr	r0, [sp, #24]
 120 006a FFF7FEFF 		bl	sodium_free
 121              	.LVL5:
  68:main.c        ****        plaintext.nonce = NULL;
 122              		.loc 1 68 8 view .LVU23
  68:main.c        ****        plaintext.nonce = NULL;
 123              		.loc 1 68 24 is_stmt 0 view .LVU24
 124 006e 0695     		str	r5, [sp, #24]
  69:main.c        ****        sodium_free(ciphertext.text);
 125              		.loc 1 69 8 is_stmt 1 view .LVU25
 126 0070 0298     		ldr	r0, [sp, #8]
 127 0072 FFF7FEFF 		bl	sodium_free
 128              	.LVL6:
  70:main.c        ****        ciphertext.text = NULL;
 129              		.loc 1 70 8 view .LVU26
  70:main.c        ****        ciphertext.text = NULL;
 130              		.loc 1 70 24 is_stmt 0 view .LVU27
 131 0076 0295     		str	r5, [sp, #8]
  71:main.c        ****        free(plaintext.text);
 132              		.loc 1 71 8 is_stmt 1 view .LVU28
 133 0078 0498     		ldr	r0, [sp, #16]
 134 007a FFF7FEFF 		bl	free
 135              	.LVL7:
  72:main.c        ****        plaintext.text = NULL;
 136              		.loc 1 72 8 view .LVU29
  72:main.c        ****        plaintext.text = NULL;
 137              		.loc 1 72 23 is_stmt 0 view .LVU30
 138 007e 0495     		str	r5, [sp, #16]
 139              	.L3:
  41:main.c        ****   while(1) {
 140              		.loc 1 41 3 is_stmt 1 view .LVU31
  44:main.c        ****      if(packetizerReceive(&plaintext) == 0) {
 141              		.loc 1 44 6 view .LVU32
  44:main.c        ****      if(packetizerReceive(&plaintext) == 0) {
 142              		.loc 1 44 9 is_stmt 0 view .LVU33
 143 0080 2046     		mov	r0, r4
 144 0082 FFF7FEFF 		bl	packetizerReceive
 145              	.LVL8:
  44:main.c        ****      if(packetizerReceive(&plaintext) == 0) {
 146              		.loc 1 44 8 discriminator 1 view .LVU34
 147 0086 0028     		cmp	r0, #0
 148 0088 FAD1     		bne	.L3
  46:main.c        ****        if(plaintext.nonce == NULL) {
 149              		.loc 1 46 8 is_stmt 1 view .LVU35
  46:main.c        ****        if(plaintext.nonce == NULL) {
 150              		.loc 1 46 10 is_stmt 0 view .LVU36
 151 008a 069B     		ldr	r3, [sp, #24]
 152 008c 002B     		cmp	r3, #0
 153 008e E3D0     		beq	.L13
 154              	.L4:
  55:main.c        ****        ciphertext.textLen = plaintext.textLen+crypto_secretbox_MACBYTES;
 155              		.loc 1 55 8 is_stmt 1 view .LVU37
  55:main.c        ****        ciphertext.textLen = plaintext.textLen+crypto_secretbox_MACBYTES;
 156              		.loc 1 55 46 is_stmt 0 view .LVU38
 157 0090 0598     		ldr	r0, [sp, #20]
 158 0092 1030     		adds	r0, r0, #16
  55:main.c        ****        ciphertext.textLen = plaintext.textLen+crypto_secretbox_MACBYTES;
 159              		.loc 1 55 27 view .LVU39
 160 0094 0390     		str	r0, [sp, #12]
  56:main.c        ****        ciphertext.text = sodium_malloc(ciphertext.textLen);
 161              		.loc 1 56 8 is_stmt 1 view .LVU40
  56:main.c        ****        ciphertext.text = sodium_malloc(ciphertext.textLen);
 162              		.loc 1 56 26 is_stmt 0 view .LVU41
 163 0096 FFF7FEFF 		bl	sodium_malloc
 164              	.LVL9:
  56:main.c        ****        ciphertext.text = sodium_malloc(ciphertext.textLen);
 165              		.loc 1 56 24 discriminator 1 view .LVU42
 166 009a 0290     		str	r0, [sp, #8]
  59:main.c        ****        if(crypto_secretbox_easy(ciphertext.text, plaintext.text, plaintext.textLen, plaintext.nonce
 167              		.loc 1 59 8 is_stmt 1 view .LVU43
  59:main.c        ****        if(crypto_secretbox_easy(ciphertext.text, plaintext.text, plaintext.textLen, plaintext.nonce
 168              		.loc 1 59 11 is_stmt 0 view .LVU44
 169 009c 07AB     		add	r3, sp, #28
 170 009e 0193     		str	r3, [sp, #4]
 171 00a0 069B     		ldr	r3, [sp, #24]
 172 00a2 0093     		str	r3, [sp]
 173 00a4 059A     		ldr	r2, [sp, #20]
 174 00a6 2B46     		mov	r3, r5
 175 00a8 0499     		ldr	r1, [sp, #16]
 176 00aa FFF7FEFF 		bl	crypto_secretbox_easy
 177              	.LVL10:
  59:main.c        ****        if(crypto_secretbox_easy(ciphertext.text, plaintext.text, plaintext.textLen, plaintext.nonce
 178              		.loc 1 59 10 discriminator 1 view .LVU45
 179 00ae 0028     		cmp	r0, #0
 180 00b0 DAD1     		bne	.L5
  62:main.c        ****                     ciphertext.textLen = plaintext.textLen+crypto_secretbox_MACBYTES;
 181              		.loc 1 62 21 is_stmt 1 view .LVU46
  62:main.c        ****                     ciphertext.textLen = plaintext.textLen+crypto_secretbox_MACBYTES;
 182              		.loc 1 62 59 is_stmt 0 view .LVU47
 183 00b2 059B     		ldr	r3, [sp, #20]
 184 00b4 1033     		adds	r3, r3, #16
  62:main.c        ****                     ciphertext.textLen = plaintext.textLen+crypto_secretbox_MACBYTES;
 185              		.loc 1 62 40 view .LVU48
 186 00b6 0393     		str	r3, [sp, #12]
  64:main.c        ****          packetizerSend(&ciphertext);
 187              		.loc 1 64 10 is_stmt 1 view .LVU49
 188 00b8 02A8     		add	r0, sp, #8
 189 00ba FFF7FEFF 		bl	packetizerSend
 190              	.LVL11:
 191 00be D3E7     		b	.L5
 192              	.L12:
 193              		.loc 1 78 3 is_stmt 0 view .LVU50
 194 00c0 FFF7FEFF 		bl	__stack_chk_fail
 195              	.LVL12:
 196              	.L15:
 197              		.align	2
 198              	.L14:
 199 00c4 00000000 		.word	__stack_chk_guard
 200 00c8 00000000 		.word	.LANCHOR0
 201 00cc 00000000 		.word	randombytes_salsa20XMC_implementation
 202              		.cfi_endproc
 203              	.LFE193:
 205              		.section	.rodata
 206              		.align	2
 207              		.set	.LANCHOR0,. + 0
 208              	.LC0:
 209 0000 C100860E 		.ascii	"\301\000\206\016\025\2002\353\202\006\000\020\012\000"
 209      158032EB 
 209      82060010 
 209      0A00
 210 000e 0000C100 		.ascii	"\000\000\301\000\206\016\025\2002\353\202\006\000\020"
 210      860E1580 
 210      32EB8206 
 210      0010
 211 001c 0A000000 		.ascii	"\012\000\000\000"
 212              		.text
 213              	.Letext0:
 214              		.file 2 "/usr/arm-none-eabi/include/machine/_default_types.h"
 215              		.file 3 "/usr/arm-none-eabi/include/sys/_stdint.h"
 216              		.file 4 "/usr/lib/gcc/arm-none-eabi/14.2.0/include/stddef.h"
 217              		.file 5 "packetizer.h"
 218              		.file 6 "/home/milovalle/Documents/TUM/ESS_LAB/sodium_1-0-15_ARMcompiled/sodium/sodium-1.0.15/incl
 219              		.file 7 "/usr/arm-none-eabi/include/stdlib.h"
 220              		.file 8 "/home/milovalle/Documents/TUM/ESS_LAB/sodium_1-0-15_ARMcompiled/sodium/sodium-1.0.15/incl
 221              		.file 9 "/home/milovalle/Documents/TUM/ESS_LAB/sodium_1-0-15_ARMcompiled/sodium/sodium-1.0.15/incl
 222              		.file 10 "randombytes_salsa20XMC_random.h"
 223              		.file 11 "VirtualSerial.h"
 224              		.file 12 "/home/milovalle/Documents/TUM/ESS_LAB/sodium_1-0-15_ARMcompiled/sodium/sodium-1.0.15/inc